(dp1
S'OriginalConfig'
p2
ccopy_reg
_reconstructor
p3
(cWMCore.Configuration
Configuration
p4
c__builtin__
object
p5
NtRp6
(dp7
S'Site'
p8
g3
(cWMCore.Configuration
ConfigSection
p9
g5
NtRp10
(dp11
S'_internal_documentation'
p12
S''
sS'_internal_settings'
p13
c__builtin__
set
p14
((lp15
S'storageSite'
p16
atRp17
sS'_internal_name'
p18
g8
sS'_internal_docstrings'
p19
(dp20
sS'_internal_children'
p21
g14
((ltRp22
sg16
S'T2_CN_Beijing'
p23
sS'_internal_parent_ref'
p24
NsbsS'_internal_sections'
p25
(lp26
S'General'
p27
aS'JobType'
p28
aS'Data'
p29
ag8
aS'User'
p30
aS'Debug'
p31
asg27
g3
(g9
g5
NtRp32
(dp33
g12
S''
sg13
g14
((lp34
S'workArea'
p35
aS'requestName'
p36
atRp37
sg18
g27
sg19
(dp38
sg21
g14
((ltRp39
sg36
S'First2016_2_SMuC'
p40
sg24
Nsg35
g40
sbsS'_internal_webapps'
p41
(lp42
sg30
g3
(g9
g5
NtRp43
(dp44
g12
S''
sg13
g14
((ltRp45
sg18
g30
sg19
(dp46
sg21
g14
((ltRp47
sg24
NsbsS'_internal_components'
p48
(lp49
sg31
g3
(g9
g5
NtRp50
(dp51
g12
S''
sg13
g14
((ltRp52
sg18
g31
sg19
(dp53
sg21
g14
((ltRp54
sg24
Nsbsg29
g3
(g9
g5
NtRp55
(dp56
S'inputDataset'
p57
S'/SingleMuon/Run2016C-PromptReco-v2/MINIAOD'
p58
sS'splitting'
p59
S'LumiBased'
p60
sS'unitsPerJob'
p61
I30
sg12
S''
sg13
g14
((lp62
g57
ag61
ag59
aS'inputDBS'
p63
aS'lumiMask'
p64
aS'outLFNDirBase'
p65
atRp66
sg18
g29
sg63
S'global'
p67
sg19
(dp68
sg21
g14
((ltRp69
sg65
S'/store/user/fromeo/'
p70
sg24
Nsg64
S'/afs/cern.ch/work/f/fromeo/CMSSW_8_0_12_FW/src/BSMFramework/BSM3G_TNT_Maker/data/JSON/Cert_271036-276097_13TeV_PromptReco_Collisions16_JSON_NoL1T_v2.txt'
p71
sbsg28
g3
(g9
g5
NtRp72
(dp73
g12
S''
sg13
g14
((lp74
S'psetName'
p75
aS'pluginName'
p76
atRp77
sg18
g28
sg19
(dp78
sg76
S'Analysis'
p79
sg21
g14
((ltRp80
sg75
S'/afs/cern.ch/work/f/fromeo/CMSSW_8_0_12_FW/src/BSMFramework/BSM3G_TNT_Maker/python/miniAOD_RD.py'
p81
sg24
NsbsbsS'voGroup'
p82
S''
sS'Server'
p83
S'cmsweb.cern.ch'
p84
sS'instance'
p85
S'prod'
p86
sS'RequestName'
p87
S'160727_091341:fromeo_crab_First2016_2_SMuC'
p88
sS'voRole'
p89
S'NULL'
p90
sS'Port'
p91
S''
s.