(dp1
S'OriginalConfig'
p2
ccopy_reg
_reconstructor
p3
(cWMCore.Configuration
Configuration
p4
c__builtin__
object
p5
NtRp6
(dp7
S'Site'
p8
g3
(cWMCore.Configuration
ConfigSection
p9
g5
NtRp10
(dp11
S'_internal_documentation'
p12
S''
sS'_internal_settings'
p13
c__builtin__
set
p14
((lp15
S'storageSite'
p16
atRp17
sS'_internal_name'
p18
g8
sS'_internal_docstrings'
p19
(dp20
sS'_internal_children'
p21
g14
((ltRp22
sg16
S'T2_CN_Beijing'
p23
sS'_internal_parent_ref'
p24
NsbsS'_internal_sections'
p25
(lp26
S'General'
p27
aS'JobType'
p28
aS'Data'
p29
ag8
aS'User'
p30
aS'Debug'
p31
asg27
g3
(g9
g5
NtRp32
(dp33
g12
S''
sg13
g14
((lp34
S'workArea'
p35
aS'requestName'
p36
atRp37
sg18
g27
sg19
(dp38
sg21
g14
((ltRp39
sg36
S'First2016_2_SaT'
p40
sg24
Nsg35
g40
sbsS'_internal_webapps'
p41
(lp42
sg30
g3
(g9
g5
NtRp43
(dp44
g12
S''
sg13
g14
((ltRp45
sg18
g30
sg19
(dp46
sg21
g14
((ltRp47
sg24
NsbsS'_internal_components'
p48
(lp49
sg31
g3
(g9
g5
NtRp50
(dp51
g12
S''
sg13
g14
((ltRp52
sg18
g31
sg19
(dp53
sg21
g14
((ltRp54
sg24
Nsbsg29
g3
(g9
g5
NtRp55
(dp56
S'inputDataset'
p57
S'/ST_tW_antitop_5f_inclusiveDecays_13TeV-powheg-pythia8_TuneCUETP8M1/RunIISpring16MiniAODv2-PUSpring16_80X_mcRun2_asymptotic_2016_miniAODv2_v0-v1/MINIAODSIM'
p58
sS'totalUnits'
p59
I2500
sS'splitting'
p60
S'FileBased'
p61
sS'unitsPerJob'
p62
I1
sg12
S''
sg13
g14
((lp63
g57
ag59
ag62
aS'inputDBS'
p64
ag60
aS'outLFNDirBase'
p65
atRp66
sg18
g29
sg64
S'global'
p67
sg19
(dp68
sg21
g14
((ltRp69
sg65
S'/store/user/fromeo/'
p70
sg24
Nsbsg28
g3
(g9
g5
NtRp71
(dp72
g12
S''
sg13
g14
((lp73
S'psetName'
p74
aS'pluginName'
p75
atRp76
sg18
g28
sg19
(dp77
sg75
S'Analysis'
p78
sg21
g14
((ltRp79
sg74
S'/afs/cern.ch/work/f/fromeo/CMSSW_8_0_12_FW/src/BSMFramework/BSM3G_TNT_Maker/python/miniAOD_MC.py'
p80
sg24
NsbsbsS'voGroup'
p81
S''
sS'Server'
p82
S'cmsweb.cern.ch'
p83
sS'instance'
p84
S'prod'
p85
sS'RequestName'
p86
S'160726_151805:fromeo_crab_First2016_2_SaT'
p87
sS'voRole'
p88
S'NULL'
p89
sS'Port'
p90
S''
s.