ccopy_reg
_reconstructor
p0
(cFWCore.ParameterSet.Config
Process
p1
c__builtin__
object
p2
Ntp3
Rp4
(dp5
S'CaloGeometryBuilder'
p6
g0
(cFWCore.ParameterSet.Modules
ESProducer
p7
g2
Ntp8
Rp9
(dp10
S'_Parameterizable__parameterNames'
p11
(lp12
S'SelectedCalos'
p13
asS'_isFrozen'
p14
I00
sS'_isModified'
p15
I00
sS'_lineNumber'
p16
I40
sS'_filename'
p17
S'/cvmfs/cms.cern.ch/slc6_amd64_gcc530/cms/cmssw/CMSSW_8_0_12/python/FWCore/ParameterSet/Modules.py'
p18
sg13
g0
(cFWCore.ParameterSet.Types
vstring
p19
c__builtin__
list
p20
(lp21
S'HCAL'
p22
aS'ZDC'
p23
aS'CASTOR'
p24
aS'EcalBarrel'
p25
aS'EcalEndcap'
p26
aS'EcalPreshower'
p27
aS'TOWER'
p28
atp29
Rp30
(dp31
g14
I00
sS'_ParameterTypeBase__isTracked'
p32
I01
sg15
I00
sS'_nPerLine'
p33
I1
sbsS'_Labelable__label'
p34
g6
sS'_TypedParameterizable__type'
p35
g6
sbsS'_Process__sequences'
p36
(dp37
S'egmGsfElectronIDSequence'
p38
g0
(cFWCore.ParameterSet.SequenceTypes
Sequence
p39
g2
Ntp40
Rp41
(dp42
g14
I00
sS'_seq'
p43
g0
(cFWCore.ParameterSet.SequenceTypes
_SequenceCollection
p44
g2
Ntp45
Rp46
(dp47
S'_collection'
p48
(lp49
g0
(cFWCore.ParameterSet.Modules
EDProducer
p50
g2
Ntp51
Rp52
(dp53
g11
(lp54
S'src'
p55
aS'srcMiniAOD'
p56
aS'mvaConfigurations'
p57
asg14
I00
sg56
g0
(cFWCore.ParameterSet.Types
InputTag
p58
g2
Ntp59
Rp60
(dp61
g14
I00
sg32
I01
sg15
I00
sS'_InputTag__moduleLabel'
p62
S'slimmedElectrons'
p63
sS'_InputTag__processName'
p64
S'@skipCurrentProcess'
p65
sS'_InputTag__productInstance'
p66
S''
p67
sbsg15
I00
sg55
g0
(g58
g2
Ntp68
Rp69
(dp70
g14
I00
sg32
I01
sg15
I00
sg62
S'gedGsfElectrons'
p71
sg64
g67
sg66
g67
sbsg17
S'/cvmfs/cms.cern.ch/slc6_amd64_gcc530/cms/cmssw/CMSSW_8_0_12/python/RecoEgamma/ElectronIdentification/ElectronMVAValueMapProducer_cfi.py'
p72
sg57
g0
(cFWCore.ParameterSet.Types
VPSet
p73
g20
(lp74
g0
(cFWCore.ParameterSet.Types
PSet
p75
g2
Ntp76
Rp77
(dp78
g14
I00
sg32
I01
sg15
I00
sS'weightFileNames'
p79
g0
(g19
g20
(lp80
S'RecoEgamma/ElectronIdentification/data/PHYS14/EIDmva_EB1_5_oldscenario2phys14_BDT.weights.xml'
p81
aS'RecoEgamma/ElectronIdentification/data/PHYS14/EIDmva_EB2_5_oldscenario2phys14_BDT.weights.xml'
p82
aS'RecoEgamma/ElectronIdentification/data/PHYS14/EIDmva_EE_5_oldscenario2phys14_BDT.weights.xml'
p83
aS'RecoEgamma/ElectronIdentification/data/PHYS14/EIDmva_EB1_10_oldscenario2phys14_BDT.weights.xml'
p84
aS'RecoEgamma/ElectronIdentification/data/PHYS14/EIDmva_EB2_10_oldscenario2phys14_BDT.weights.xml'
p85
aS'RecoEgamma/ElectronIdentification/data/PHYS14/EIDmva_EE_10_oldscenario2phys14_BDT.weights.xml'
p86
atp87
Rp88
(dp89
g14
I00
sg32
I01
sg15
I00
sg33
I1
sbsS'mvaName'
p90
g0
(cFWCore.ParameterSet.Types
string
p91
g2
Ntp92
Rp93
(dp94
g14
I00
sg32
I01
sS'_value'
p95
S'ElectronMVAEstimatorRun2Phys14NonTrig'
p96
sg15
I00
sbsS'mvaTag'
p97
g0
(g91
g2
Ntp98
Rp99
(dp100
g14
I00
sg32
I01
sg95
S'25nsV1'
p101
sg15
I00
sbsg11
(lp102
g90
ag79
ag97
asg34
S'mvaEleID_PHYS14_PU20bx25_nonTrig_V1_producer_config'
p103
sbag0
(g75
g2
Ntp104
Rp105
(dp106
g14
I00
sg32
I01
sS'beamSpot'
p107
g0
(g58
g2
Ntp108
Rp109
(dp110
g14
I00
sg32
I01
sg15
I00
sg62
S'offlineBeamSpot'
p111
sg64
g67
sg66
g67
sbsS'conversionsAOD'
p112
g0
(g58
g2
Ntp113
Rp114
(dp115
g14
I00
sg32
I01
sg15
I00
sg62
S'allConversions'
p116
sg64
g67
sg66
g67
sbsS'conversionsMiniAOD'
p117
g0
(g58
g2
Ntp118
Rp119
(dp120
g14
I00
sg32
I01
sg15
I00
sg62
S'reducedEgamma'
p121
sg64
g67
sg66
S'reducedConversions'
p122
sbsg79
g0
(g19
g20
(lp123
S'RecoEgamma/ElectronIdentification/data/Spring15/EIDmva_EB1_5_oldNonTrigSpring15_ConvVarCwoBoolean_TMVA412_FullStatLowPt_PairNegWeightsGlobal_BDT.weights.xml'
p124
aS'RecoEgamma/ElectronIdentification/data/Spring15/EIDmva_EB2_5_oldNonTrigSpring15_ConvVarCwoBoolean_TMVA412_FullStatLowPt_PairNegWeightsGlobal_BDT.weights.xml'
p125
aS'RecoEgamma/ElectronIdentification/data/Spring15/EIDmva_EE_5_oldNonTrigSpring15_ConvVarCwoBoolean_TMVA412_FullStatLowPt_PairNegWeightsGlobal_BDT.weights.xml'
p126
aS'RecoEgamma/ElectronIdentification/data/Spring15/EIDmva_EB1_10_oldNonTrigSpring15_ConvVarCwoBoolean_TMVA412_FullStatLowPt_PairNegWeightsGlobal_BDT.weights.xml'
p127
aS'RecoEgamma/ElectronIdentification/data/Spring15/EIDmva_EB2_10_oldNonTrigSpring15_ConvVarCwoBoolean_TMVA412_FullStatLowPt_PairNegWeightsGlobal_BDT.weights.xml'
p128
aS'RecoEgamma/ElectronIdentification/data/Spring15/EIDmva_EE_10_oldNonTrigSpring15_ConvVarCwoBoolean_TMVA412_FullStatLowPt_PairNegWeightsGlobal_BDT.weights.xml'
p129
atp130
Rp131
(dp132
g14
I00
sg32
I01
sg15
I00
sg33
I1
sbsg90
g0
(g91
g2
Ntp133
Rp134
(dp135
g14
I00
sg32
I01
sg95
S'ElectronMVAEstimatorRun2Spring15NonTrig'
p136
sg15
I00
sbsg97
g0
(g91
g2
Ntp137
Rp138
(dp139
g14
I00
sg32
I01
sg95
g101
sg15
I00
sbsg11
(lp140
g90
ag107
ag112
ag117
ag79
ag97
asg34
S'mvaEleID_Spring15_25ns_nonTrig_V1_producer_config'
p141
sg15
I00
sbag0
(g75
g2
Ntp142
Rp143
(dp144
g14
I00
sg32
I01
sg107
g0
(g58
g2
Ntp145
Rp146
(dp147
g14
I00
sg32
I01
sg15
I00
sg62
g111
sg64
g67
sg66
g67
sbsg112
g0
(g58
g2
Ntp148
Rp149
(dp150
g14
I00
sg32
I01
sg15
I00
sg62
g116
sg64
g67
sg66
g67
sbsg117
g0
(g58
g2
Ntp151
Rp152
(dp153
g14
I00
sg32
I01
sg15
I00
sg62
S'reducedEgamma'
p154
sg64
g67
sg66
S'reducedConversions'
p155
sbsg79
g0
(g19
g20
(lp156
S'RecoEgamma/ElectronIdentification/data/Spring15/EIDmva_EB1_10_oldTrigSpring15_50ns_data_1_VarD_TMVA412_Sig6BkgAll_MG_noSpec_BDT.weights.xml'
p157
aS'RecoEgamma/ElectronIdentification/data/Spring15/EIDmva_EB2_10_oldTrigSpring15_50ns_data_1_VarD_TMVA412_Sig6BkgAll_MG_noSpec_BDT.weights.xml'
p158
aS'RecoEgamma/ElectronIdentification/data/Spring15/EIDmva_EE_10_oldTrigSpring15_50ns_data_1_VarD_TMVA412_Sig6BkgAll_MG_noSpec_BDT.weights.xml'
p159
atp160
Rp161
(dp162
g14
I00
sg32
I01
sg15
I00
sg33
I1
sbsg90
g0
(g91
g2
Ntp163
Rp164
(dp165
g14
I00
sg32
I01
sg95
S'ElectronMVAEstimatorRun2Spring15Trig'
p166
sg15
I00
sbsg97
g0
(g91
g2
Ntp167
Rp168
(dp169
g14
I00
sg32
I01
sg95
S'50nsV1'
p170
sg15
I00
sbsg11
(lp171
g90
ag107
ag112
ag117
ag79
ag97
asg34
S'mvaEleID_Spring15_50ns_Trig_V1_producer_config'
p172
sg15
I00
sbag0
(g75
g2
Ntp173
Rp174
(dp175
g14
I00
sg32
I01
sg107
g0
(g58
g2
Ntp176
Rp177
(dp178
g14
I00
sg32
I01
sg15
I00
sg62
g111
sg64
g67
sg66
g67
sbsg112
g0
(g58
g2
Ntp179
Rp180
(dp181
g14
I00
sg32
I01
sg15
I00
sg62
g116
sg64
g67
sg66
g67
sbsg117
g0
(g58
g2
Ntp182
Rp183
(dp184
g14
I00
sg32
I01
sg15
I00
sg62
S'reducedEgamma'
p185
sg64
g67
sg66
S'reducedConversions'
p186
sbsg79
g0
(g19
g20
(lp187
S'RecoEgamma/ElectronIdentification/data/Spring15/EIDmva_EB1_10_oldTrigSpring15_25ns_data_1_VarD_TMVA412_Sig6BkgAll_MG_noSpec_BDT.weights.xml'
p188
aS'RecoEgamma/ElectronIdentification/data/Spring15/EIDmva_EB2_10_oldTrigSpring15_25ns_data_1_VarD_TMVA412_Sig6BkgAll_MG_noSpec_BDT.weights.xml'
p189
aS'RecoEgamma/ElectronIdentification/data/Spring15/EIDmva_EE_10_oldTrigSpring15_25ns_data_1_VarD_TMVA412_Sig6BkgAll_MG_noSpec_BDT.weights.xml'
p190
atp191
Rp192
(dp193
g14
I00
sg32
I01
sg15
I00
sg33
I1
sbsg90
g0
(g91
g2
Ntp194
Rp195
(dp196
g14
I00
sg32
I01
sg95
g166
sg15
I00
sbsg97
g0
(g91
g2
Ntp197
Rp198
(dp199
g14
I00
sg32
I01
sg95
g101
sg15
I00
sbsg11
(lp200
g90
ag107
ag112
ag117
ag79
ag97
asg34
S'mvaEleID_Spring15_25ns_Trig_V1_producer_config'
p201
sg15
I00
sbatp202
Rp203
(dp204
g14
I00
sg32
I01
sg34
S'mvaConfigsForEleProducer'
p205
sg15
I00
sg33
I1
sbsg16
I31
sg34
S'electronMVAValueMapProducer'
p206
sg35
S'ElectronMVAValueMapProducer'
p207
sbag0
(g50
g2
Ntp208
Rp209
(dp210
g11
(lp211
S'physicsObjectIDs'
p212
aS'physicsObjectSrc'
p213
asg14
I00
sg15
I01
sg16
I6
sg17
S'/cvmfs/cms.cern.ch/slc6_amd64_gcc530/cms/cmssw/CMSSW_8_0_12/python/RecoEgamma/ElectronIdentification/egmGsfElectronIDs_cfi.py'
p214
sg213
g0
(g58
g2
Ntp215
Rp216
(dp217
g14
I00
sg32
I01
sg15
I00
sg62
g63
sg64
g67
sg66
g67
sbsg212
g0
(g73
g20
(lp218
g0
(g75
g2
Ntp219
Rp220
(dp221
g14
I00
sg32
I01
sS'idDefinition'
p222
g0
(g75
g2
Ntp223
Rp224
(dp225
g14
I00
sg32
I01
sg15
I01
sS'idName'
p226
g0
(g91
g2
Ntp227
Rp228
(dp229
g14
I00
sg32
I01
sg95
S'cutBasedElectronID-Spring15-25ns-V1-standalone-loose'
p230
sg15
I00
sbsS'cutFlow'
p231
g0
(g73
g20
(lp232
g0
(g75
g2
Ntp233
Rp234
(dp235
g14
I00
sg32
I01
sg15
I00
sS'cutName'
p236
g0
(g91
g2
Ntp237
Rp238
(dp239
g14
I00
sg32
I01
sg95
S'MinPtCut'
p240
sg15
I00
sbsS'needsAdditionalProducts'
p241
g0
(cFWCore.ParameterSet.Types
bool
p242
g2
Ntp243
Rp244
(dp245
g14
I00
sg32
I01
sg95
I00
sg15
I00
sbsS'isIgnored'
p246
g0
(g242
g2
Ntp247
Rp248
(dp249
g14
I00
sg32
I01
sg95
I00
sg15
I00
sbsg11
(lp250
g241
aS'minPt'
p251
ag236
ag246
asg251
g0
(cFWCore.ParameterSet.Types
double
p252
g2
Ntp253
Rp254
(dp255
g14
I00
sg32
I01
sg95
F5.0
sg15
I00
sbsbag0
(g75
g2
Ntp256
Rp257
(dp258
g14
I00
sg32
I01
sg15
I00
sg236
g0
(g91
g2
Ntp259
Rp260
(dp261
g14
I00
sg32
I01
sg95
S'GsfEleSCEtaMultiRangeCut'
p262
sg15
I00
sbsg241
g0
(g242
g2
Ntp263
Rp264
(dp265
g14
I00
sg32
I01
sg95
I00
sg15
I00
sbsg246
g0
(g242
g2
Ntp266
Rp267
(dp268
g14
I00
sg32
I01
sg95
I00
sg15
I00
sbsS'allowedEtaRanges'
p269
g0
(g73
g20
(lp270
g0
(g75
g2
Ntp271
Rp272
(dp273
g14
I00
sg32
I01
sg15
I00
sS'maxEta'
p274
g0
(g252
g2
Ntp275
Rp276
(dp277
g14
I00
sg32
I01
sg95
F1.479
sg15
I00
sbsS'minEta'
p278
g0
(g252
g2
Ntp279
Rp280
(dp281
g14
I00
sg32
I01
sg95
F0.0
sg15
I00
sbsg11
(lp282
g274
ag278
asbag0
(g75
g2
Ntp283
Rp284
(dp285
g14
I00
sg32
I01
sg15
I00
sg274
g0
(g252
g2
Ntp286
Rp287
(dp288
g14
I00
sg32
I01
sg95
F2.5
sg15
I00
sbsg278
g0
(g252
g2
Ntp289
Rp290
(dp291
g14
I00
sg32
I01
sg95
F1.479
sg15
I00
sbsg11
(lp292
g274
ag278
asbatp293
Rp294
(dp295
g14
I00
sg32
I01
sg15
I00
sg33
I1
sbsg11
(lp296
g241
aS'useAbsEta'
p297
ag236
ag269
ag246
asg297
g0
(g242
g2
Ntp298
Rp299
(dp300
g14
I00
sg32
I01
sg95
I01
sg15
I00
sbsbag0
(g75
g2
Ntp301
Rp302
(dp303
g14
I00
sg32
I01
sg15
I00
sg236
g0
(g91
g2
Ntp304
Rp305
(dp306
g14
I00
sg32
I01
sg95
S'GsfEleDEtaInCut'
p307
sg15
I00
sbsg241
g0
(g242
g2
Ntp308
Rp309
(dp310
g14
I00
sg32
I01
sg95
I00
sg15
I00
sbsS'dEtaInCutValueEB'
p311
g0
(g252
g2
Ntp312
Rp313
(dp314
g14
I00
sg32
I01
sg95
F0.0105
sg15
I00
sbsS'dEtaInCutValueEE'
p315
g0
(g252
g2
Ntp316
Rp317
(dp318
g14
I00
sg32
I01
sg95
F0.00814
sg15
I00
sbsS'barrelCutOff'
p319
g0
(g252
g2
Ntp320
Rp321
(dp322
g14
I00
sg32
I01
sg95
F1.479
sg15
I00
sbsg11
(lp323
g236
ag241
ag311
ag315
ag319
ag246
asg246
g0
(g242
g2
Ntp324
Rp325
(dp326
g14
I00
sg32
I01
sg95
I00
sg15
I00
sbsbag0
(g75
g2
Ntp327
Rp328
(dp329
g14
I00
sg32
I01
sg15
I00
sg236
g0
(g91
g2
Ntp330
Rp331
(dp332
g14
I00
sg32
I01
sg95
S'GsfEleDPhiInCut'
p333
sg15
I00
sbsg241
g0
(g242
g2
Ntp334
Rp335
(dp336
g14
I00
sg32
I01
sg95
I00
sg15
I00
sbsS'dPhiInCutValueEB'
p337
g0
(g252
g2
Ntp338
Rp339
(dp340
g14
I00
sg32
I01
sg95
F0.115
sg15
I00
sbsg319
g0
(g252
g2
Ntp341
Rp342
(dp343
g14
I00
sg32
I01
sg95
F1.479
sg15
I00
sbsS'dPhiInCutValueEE'
p344
g0
(g252
g2
Ntp345
Rp346
(dp347
g14
I00
sg32
I01
sg95
F0.182
sg15
I00
sbsg11
(lp348
g236
ag241
ag337
ag319
ag344
ag246
asg246
g0
(g242
g2
Ntp349
Rp350
(dp351
g14
I00
sg32
I01
sg95
I00
sg15
I00
sbsbag0
(g75
g2
Ntp352
Rp353
(dp354
g14
I00
sg32
I01
sg15
I00
sg236
g0
(g91
g2
Ntp355
Rp356
(dp357
g14
I00
sg32
I01
sg95
S'GsfEleFull5x5SigmaIEtaIEtaCut'
p358
sg15
I00
sbsg319
g0
(g252
g2
Ntp359
Rp360
(dp361
g14
I00
sg32
I01
sg95
F1.479
sg15
I00
sbsg241
g0
(g242
g2
Ntp362
Rp363
(dp364
g14
I00
sg32
I01
sg95
I00
sg15
I00
sbsS'full5x5SigmaIEtaIEtaCutValueEB'
p365
g0
(g252
g2
Ntp366
Rp367
(dp368
g14
I00
sg32
I01
sg95
F0.0103
sg15
I00
sbsg11
(lp369
g236
ag319
ag241
ag246
aS'full5x5SigmaIEtaIEtaCutValueEE'
p370
ag365
asg370
g0
(g252
g2
Ntp371
Rp372
(dp373
g14
I00
sg32
I01
sg95
F0.0301
sg15
I00
sbsg246
g0
(g242
g2
Ntp374
Rp375
(dp376
g14
I00
sg32
I01
sg95
I00
sg15
I00
sbsbag0
(g75
g2
Ntp377
Rp378
(dp379
g14
I00
sg32
I01
sg15
I00
sg236
g0
(g91
g2
Ntp380
Rp381
(dp382
g14
I00
sg32
I01
sg95
S'GsfEleHadronicOverEMCut'
p383
sg15
I00
sbsg319
g0
(g252
g2
Ntp384
Rp385
(dp386
g14
I00
sg32
I01
sg95
F1.479
sg15
I00
sbsg241
g0
(g242
g2
Ntp387
Rp388
(dp389
g14
I00
sg32
I01
sg95
I00
sg15
I00
sbsS'hadronicOverEMCutValueEE'
p390
g0
(g252
g2
Ntp391
Rp392
(dp393
g14
I00
sg32
I01
sg95
F0.0897
sg15
I00
sbsS'hadronicOverEMCutValueEB'
p394
g0
(g252
g2
Ntp395
Rp396
(dp397
g14
I00
sg32
I01
sg95
F0.104
sg15
I00
sbsg11
(lp398
g236
ag319
ag241
ag390
ag394
ag246
asg246
g0
(g242
g2
Ntp399
Rp400
(dp401
g14
I00
sg32
I01
sg95
I00
sg15
I00
sbsbag0
(g75
g2
Ntp402
Rp403
(dp404
g14
I00
sg32
I01
sg15
I00
sg236
g0
(g91
g2
Ntp405
Rp406
(dp407
g14
I00
sg32
I01
sg95
S'GsfEleDxyCut'
p408
sg15
I00
sbsg241
g0
(g242
g2
Ntp409
Rp410
(dp411
g14
I00
sg32
I01
sg95
I01
sg15
I00
sbsg319
g0
(g252
g2
Ntp412
Rp413
(dp414
g14
I00
sg32
I01
sg95
F1.479
sg15
I00
sbsS'dxyCutValueEB'
p415
g0
(g252
g2
Ntp416
Rp417
(dp418
g14
I00
sg32
I01
sg95
F0.0261
sg15
I00
sbsS'vertexSrc'
p419
g0
(g58
g2
Ntp420
Rp421
(dp422
g14
I00
sg32
I01
sg15
I00
sg62
S'offlinePrimaryVertices'
p423
sg64
g67
sg66
g67
sbsg11
(lp424
g236
ag241
ag319
ag415
ag419
aS'dxyCutValueEE'
p425
ag246
aS'vertexSrcMiniAOD'
p426
asg426
g0
(g58
g2
Ntp427
Rp428
(dp429
g14
I00
sg32
I01
sg15
I00
sg62
S'offlineSlimmedPrimaryVertices'
p430
sg64
g67
sg66
g67
sbsg246
g0
(g242
g2
Ntp431
Rp432
(dp433
g14
I00
sg32
I01
sg95
I00
sg15
I00
sbsg425
g0
(g252
g2
Ntp434
Rp435
(dp436
g14
I00
sg32
I01
sg95
F0.118
sg15
I00
sbsbag0
(g75
g2
Ntp437
Rp438
(dp439
g14
I00
sg32
I01
sg15
I00
sg236
g0
(g91
g2
Ntp440
Rp441
(dp442
g14
I00
sg32
I01
sg95
S'GsfEleDzCut'
p443
sg15
I00
sbsg241
g0
(g242
g2
Ntp444
Rp445
(dp446
g14
I00
sg32
I01
sg95
I01
sg15
I00
sbsg319
g0
(g252
g2
Ntp447
Rp448
(dp449
g14
I00
sg32
I01
sg95
F1.479
sg15
I00
sbsS'dzCutValueEE'
p450
g0
(g252
g2
Ntp451
Rp452
(dp453
g14
I00
sg32
I01
sg95
F0.822
sg15
I00
sbsS'dzCutValueEB'
p454
g0
(g252
g2
Ntp455
Rp456
(dp457
g14
I00
sg32
I01
sg95
F0.41
sg15
I00
sbsg419
g0
(g58
g2
Ntp458
Rp459
(dp460
g14
I00
sg32
I01
sg15
I00
sg62
g423
sg64
g67
sg66
g67
sbsg11
(lp461
g236
ag241
ag319
ag450
ag454
ag419
ag246
ag426
asg246
g0
(g242
g2
Ntp462
Rp463
(dp464
g14
I00
sg32
I01
sg95
I00
sg15
I00
sbsg426
g0
(g58
g2
Ntp465
Rp466
(dp467
g14
I00
sg32
I01
sg15
I00
sg62
g430
sg64
g67
sg66
g67
sbsbag0
(g75
g2
Ntp468
Rp469
(dp470
g14
I00
sg32
I01
sg15
I00
sg236
g0
(g91
g2
Ntp471
Rp472
(dp473
g14
I00
sg32
I01
sg95
S'GsfEleEInverseMinusPInverseCut'
p474
sg15
I00
sbsg319
g0
(g252
g2
Ntp475
Rp476
(dp477
g14
I00
sg32
I01
sg95
F1.479
sg15
I00
sbsg241
g0
(g242
g2
Ntp478
Rp479
(dp480
g14
I00
sg32
I01
sg95
I00
sg15
I00
sbsS'eInverseMinusPInverseCutValueEB'
p481
g0
(g252
g2
Ntp482
Rp483
(dp484
g14
I00
sg32
I01
sg95
F0.102
sg15
I00
sbsS'eInverseMinusPInverseCutValueEE'
p485
g0
(g252
g2
Ntp486
Rp487
(dp488
g14
I00
sg32
I01
sg95
F0.126
sg15
I00
sbsg11
(lp489
g236
ag319
ag241
ag481
ag485
ag246
asg246
g0
(g242
g2
Ntp490
Rp491
(dp492
g14
I00
sg32
I01
sg95
I00
sg15
I00
sbsbag0
(g75
g2
Ntp493
Rp494
(dp495
g14
I00
sg32
I01
sg15
I00
sg236
g0
(g91
g2
Ntp496
Rp497
(dp498
g14
I00
sg32
I01
sg95
S'GsfEleEffAreaPFIsoCut'
p499
sg15
I00
sbsg319
g0
(g252
g2
Ntp500
Rp501
(dp502
g14
I00
sg32
I01
sg95
F1.479
sg15
I00
sbsS'isoCutEELowPt'
p503
g0
(g252
g2
Ntp504
Rp505
(dp506
g14
I00
sg32
I01
sg95
F0.121
sg15
I00
sbsS'ptCutOff'
p507
g0
(g252
g2
Ntp508
Rp509
(dp510
g14
I00
sg32
I01
sg95
F20.0
sg15
I00
sbsS'isoCutEEHighPt'
p511
g0
(g252
g2
Ntp512
Rp513
(dp514
g14
I00
sg32
I01
sg95
F0.121
sg15
I00
sbsS'isoCutEBHighPt'
p515
g0
(g252
g2
Ntp516
Rp517
(dp518
g14
I00
sg32
I01
sg95
F0.0893
sg15
I00
sbsg241
g0
(g242
g2
Ntp519
Rp520
(dp521
g14
I00
sg32
I01
sg95
I01
sg15
I00
sbsS'rho'
p522
g0
(g58
g2
Ntp523
Rp524
(dp525
g14
I00
sg32
I01
sg15
I00
sg62
S'fixedGridRhoFastjetAll'
p526
sg64
g67
sg66
g67
sbsg11
(lp527
g236
ag319
ag503
ag507
ag511
ag515
ag241
ag522
aS'effAreasConfigFile'
p528
aS'isRelativeIso'
p529
ag246
aS'isoCutEBLowPt'
p530
asg529
g0
(g242
g2
Ntp531
Rp532
(dp533
g14
I00
sg32
I01
sg95
I01
sg15
I00
sbsg528
g0
(cFWCore.ParameterSet.Types
FileInPath
p534
g2
Ntp535
Rp536
(dp537
g14
I00
sg32
I01
sg95
S'RecoEgamma/ElectronIdentification/data/Spring15/effAreaElectrons_cone03_pfNeuHadronsAndPhotons_25ns.txt'
p538
sg15
I00
sbsg246
g0
(g242
g2
Ntp539
Rp540
(dp541
g14
I00
sg32
I01
sg95
I00
sg15
I00
sbsg530
g0
(g252
g2
Ntp542
Rp543
(dp544
g14
I00
sg32
I01
sg95
F0.0893
sg15
I00
sbsbag0
(g75
g2
Ntp545
Rp546
(dp547
g14
I00
sg32
I01
sS'beamspotSrc'
p548
g0
(g58
g2
Ntp549
Rp550
(dp551
g14
I00
sg32
I01
sg15
I00
sg62
g111
sg64
g67
sg66
g67
sbsg15
I00
sg236
g0
(g91
g2
Ntp552
Rp553
(dp554
g14
I00
sg32
I01
sg95
S'GsfEleConversionVetoCut'
p555
sg15
I00
sbsg241
g0
(g242
g2
Ntp556
Rp557
(dp558
g14
I00
sg32
I01
sg95
I01
sg15
I00
sbsg246
g0
(g242
g2
Ntp559
Rp560
(dp561
g14
I00
sg32
I01
sg95
I00
sg15
I00
sbsS'conversionSrc'
p562
g0
(g58
g2
Ntp563
Rp564
(dp565
g14
I00
sg32
I01
sg15
I00
sg62
g116
sg64
g67
sg66
g67
sbsS'conversionSrcMiniAOD'
p566
g0
(g58
g2
Ntp567
Rp568
(dp569
g14
I00
sg32
I01
sg15
I00
sg62
S'reducedEgamma'
p570
sg64
g67
sg66
S'reducedConversions'
p571
sbsg11
(lp572
g548
ag236
ag241
ag246
ag566
ag562
asbag0
(g75
g2
Ntp573
Rp574
(dp575
g14
I00
sg32
I01
sg15
I00
sg236
g0
(g91
g2
Ntp576
Rp577
(dp578
g14
I00
sg32
I01
sg95
S'GsfEleMissingHitsCut'
p579
sg15
I00
sbsg319
g0
(g252
g2
Ntp580
Rp581
(dp582
g14
I00
sg32
I01
sg95
F1.479
sg15
I00
sbsg241
g0
(g242
g2
Ntp583
Rp584
(dp585
g14
I00
sg32
I01
sg95
I00
sg15
I00
sbsg11
(lp586
g236
ag319
ag241
aS'maxMissingHitsEE'
p587
aS'maxMissingHitsEB'
p588
ag246
asg587
g0
(cFWCore.ParameterSet.Types
uint32
p589
g2
Ntp590
Rp591
(dp592
g14
I00
sg32
I01
sg95
I1
sg15
I00
sbsg588
g0
(g589
g2
Ntp593
Rp594
(dp595
g14
I00
sg32
I01
sg95
I2
sg15
I00
sbsg246
g0
(g242
g2
Ntp596
Rp597
(dp598
g14
I00
sg32
I01
sg95
I00
sg15
I00
sbsbatp599
Rp600
(dp601
g14
I00
sg32
I01
sg15
I00
sg33
I1
sbsg11
(lp602
g226
ag231
asbsg15
I00
sS'idMD5'
p603
g0
(g91
g2
Ntp604
Rp605
(dp606
g14
I00
sg32
I01
sg95
S'4fab9e4d09a2c1a36cbbd2279deb3627'
p607
sg15
I00
sbsS'isPOGApproved'
p608
g0
(g242
g2
Ntp609
Rp610
(dp611
g14
I00
sg32
I00
sg95
I01
sg15
I00
sbsg11
(lp612
g222
ag603
ag608
asbag0
(g75
g2
Ntp613
Rp614
(dp615
g14
I00
sg32
I01
sg222
g0
(g75
g2
Ntp616
Rp617
(dp618
g14
I00
sg32
I01
sg15
I01
sg226
g0
(g91
g2
Ntp619
Rp620
(dp621
g14
I00
sg32
I01
sg95
S'cutBasedElectronID-Spring15-25ns-V1-standalone-medium'
p622
sg15
I00
sbsg231
g0
(g73
g20
(lp623
g0
(g75
g2
Ntp624
Rp625
(dp626
g14
I00
sg32
I01
sg15
I00
sg236
g0
(g91
g2
Ntp627
Rp628
(dp629
g14
I00
sg32
I01
sg95
g240
sg15
I00
sbsg241
g0
(g242
g2
Ntp630
Rp631
(dp632
g14
I00
sg32
I01
sg95
I00
sg15
I00
sbsg246
g0
(g242
g2
Ntp633
Rp634
(dp635
g14
I00
sg32
I01
sg95
I00
sg15
I00
sbsg11
(lp636
g241
ag251
ag236
ag246
asg251
g0
(g252
g2
Ntp637
Rp638
(dp639
g14
I00
sg32
I01
sg95
F5.0
sg15
I00
sbsbag0
(g75
g2
Ntp640
Rp641
(dp642
g14
I00
sg32
I01
sg15
I00
sg236
g0
(g91
g2
Ntp643
Rp644
(dp645
g14
I00
sg32
I01
sg95
g262
sg15
I00
sbsg241
g0
(g242
g2
Ntp646
Rp647
(dp648
g14
I00
sg32
I01
sg95
I00
sg15
I00
sbsg246
g0
(g242
g2
Ntp649
Rp650
(dp651
g14
I00
sg32
I01
sg95
I00
sg15
I00
sbsg269
g0
(g73
g20
(lp652
g0
(g75
g2
Ntp653
Rp654
(dp655
g14
I00
sg32
I01
sg15
I00
sg274
g0
(g252
g2
Ntp656
Rp657
(dp658
g14
I00
sg32
I01
sg95
F1.479
sg15
I00
sbsg278
g0
(g252
g2
Ntp659
Rp660
(dp661
g14
I00
sg32
I01
sg95
F0.0
sg15
I00
sbsg11
(lp662
g274
ag278
asbag0
(g75
g2
Ntp663
Rp664
(dp665
g14
I00
sg32
I01
sg15
I00
sg274
g0
(g252
g2
Ntp666
Rp667
(dp668
g14
I00
sg32
I01
sg95
F2.5
sg15
I00
sbsg278
g0
(g252
g2
Ntp669
Rp670
(dp671
g14
I00
sg32
I01
sg95
F1.479
sg15
I00
sbsg11
(lp672
g274
ag278
asbatp673
Rp674
(dp675
g14
I00
sg32
I01
sg15
I00
sg33
I1
sbsg11
(lp676
g241
ag297
ag236
ag269
ag246
asg297
g0
(g242
g2
Ntp677
Rp678
(dp679
g14
I00
sg32
I01
sg95
I01
sg15
I00
sbsbag0
(g75
g2
Ntp680
Rp681
(dp682
g14
I00
sg32
I01
sg15
I00
sg236
g0
(g91
g2
Ntp683
Rp684
(dp685
g14
I00
sg32
I01
sg95
g307
sg15
I00
sbsg241
g0
(g242
g2
Ntp686
Rp687
(dp688
g14
I00
sg32
I01
sg95
I00
sg15
I00
sbsg311
g0
(g252
g2
Ntp689
Rp690
(dp691
g14
I00
sg32
I01
sg95
F0.0103
sg15
I00
sbsg315
g0
(g252
g2
Ntp692
Rp693
(dp694
g14
I00
sg32
I01
sg95
F0.00733
sg15
I00
sbsg319
g0
(g252
g2
Ntp695
Rp696
(dp697
g14
I00
sg32
I01
sg95
F1.479
sg15
I00
sbsg11
(lp698
g236
ag241
ag311
ag315
ag319
ag246
asg246
g0
(g242
g2
Ntp699
Rp700
(dp701
g14
I00
sg32
I01
sg95
I00
sg15
I00
sbsbag0
(g75
g2
Ntp702
Rp703
(dp704
g14
I00
sg32
I01
sg15
I00
sg236
g0
(g91
g2
Ntp705
Rp706
(dp707
g14
I00
sg32
I01
sg95
g333
sg15
I00
sbsg241
g0
(g242
g2
Ntp708
Rp709
(dp710
g14
I00
sg32
I01
sg95
I00
sg15
I00
sbsg337
g0
(g252
g2
Ntp711
Rp712
(dp713
g14
I00
sg32
I01
sg95
F0.0336
sg15
I00
sbsg319
g0
(g252
g2
Ntp714
Rp715
(dp716
g14
I00
sg32
I01
sg95
F1.479
sg15
I00
sbsg344
g0
(g252
g2
Ntp717
Rp718
(dp719
g14
I00
sg32
I01
sg95
F0.114
sg15
I00
sbsg11
(lp720
g236
ag241
ag337
ag319
ag344
ag246
asg246
g0
(g242
g2
Ntp721
Rp722
(dp723
g14
I00
sg32
I01
sg95
I00
sg15
I00
sbsbag0
(g75
g2
Ntp724
Rp725
(dp726
g14
I00
sg32
I01
sg15
I00
sg236
g0
(g91
g2
Ntp727
Rp728
(dp729
g14
I00
sg32
I01
sg95
g358
sg15
I00
sbsg319
g0
(g252
g2
Ntp730
Rp731
(dp732
g14
I00
sg32
I01
sg95
F1.479
sg15
I00
sbsg241
g0
(g242
g2
Ntp733
Rp734
(dp735
g14
I00
sg32
I01
sg95
I00
sg15
I00
sbsg365
g0
(g252
g2
Ntp736
Rp737
(dp738
g14
I00
sg32
I01
sg95
F0.0101
sg15
I00
sbsg11
(lp739
g236
ag319
ag241
ag246
ag370
ag365
asg370
g0
(g252
g2
Ntp740
Rp741
(dp742
g14
I00
sg32
I01
sg95
F0.0283
sg15
I00
sbsg246
g0
(g242
g2
Ntp743
Rp744
(dp745
g14
I00
sg32
I01
sg95
I00
sg15
I00
sbsbag0
(g75
g2
Ntp746
Rp747
(dp748
g14
I00
sg32
I01
sg15
I00
sg236
g0
(g91
g2
Ntp749
Rp750
(dp751
g14
I00
sg32
I01
sg95
g383
sg15
I00
sbsg319
g0
(g252
g2
Ntp752
Rp753
(dp754
g14
I00
sg32
I01
sg95
F1.479
sg15
I00
sbsg241
g0
(g242
g2
Ntp755
Rp756
(dp757
g14
I00
sg32
I01
sg95
I00
sg15
I00
sbsg390
g0
(g252
g2
Ntp758
Rp759
(dp760
g14
I00
sg32
I01
sg95
F0.0678
sg15
I00
sbsg394
g0
(g252
g2
Ntp761
Rp762
(dp763
g14
I00
sg32
I01
sg95
F0.0876
sg15
I00
sbsg11
(lp764
g236
ag319
ag241
ag390
ag394
ag246
asg246
g0
(g242
g2
Ntp765
Rp766
(dp767
g14
I00
sg32
I01
sg95
I00
sg15
I00
sbsbag0
(g75
g2
Ntp768
Rp769
(dp770
g14
I00
sg32
I01
sg15
I00
sg236
g0
(g91
g2
Ntp771
Rp772
(dp773
g14
I00
sg32
I01
sg95
g408
sg15
I00
sbsg241
g0
(g242
g2
Ntp774
Rp775
(dp776
g14
I00
sg32
I01
sg95
I01
sg15
I00
sbsg319
g0
(g252
g2
Ntp777
Rp778
(dp779
g14
I00
sg32
I01
sg95
F1.479
sg15
I00
sbsg415
g0
(g252
g2
Ntp780
Rp781
(dp782
g14
I00
sg32
I01
sg95
F0.0118
sg15
I00
sbsg419
g0
(g58
g2
Ntp783
Rp784
(dp785
g14
I00
sg32
I01
sg15
I00
sg62
g423
sg64
g67
sg66
g67
sbsg11
(lp786
g236
ag241
ag319
ag415
ag419
ag425
ag246
ag426
asg426
g0
(g58
g2
Ntp787
Rp788
(dp789
g14
I00
sg32
I01
sg15
I00
sg62
g430
sg64
g67
sg66
g67
sbsg246
g0
(g242
g2
Ntp790
Rp791
(dp792
g14
I00
sg32
I01
sg95
I00
sg15
I00
sbsg425
g0
(g252
g2
Ntp793
Rp794
(dp795
g14
I00
sg32
I01
sg95
F0.0739
sg15
I00
sbsbag0
(g75
g2
Ntp796
Rp797
(dp798
g14
I00
sg32
I01
sg15
I00
sg236
g0
(g91
g2
Ntp799
Rp800
(dp801
g14
I00
sg32
I01
sg95
g443
sg15
I00
sbsg241
g0
(g242
g2
Ntp802
Rp803
(dp804
g14
I00
sg32
I01
sg95
I01
sg15
I00
sbsg319
g0
(g252
g2
Ntp805
Rp806
(dp807
g14
I00
sg32
I01
sg95
F1.479
sg15
I00
sbsg450
g0
(g252
g2
Ntp808
Rp809
(dp810
g14
I00
sg32
I01
sg95
F0.602
sg15
I00
sbsg454
g0
(g252
g2
Ntp811
Rp812
(dp813
g14
I00
sg32
I01
sg95
F0.373
sg15
I00
sbsg419
g0
(g58
g2
Ntp814
Rp815
(dp816
g14
I00
sg32
I01
sg15
I00
sg62
g423
sg64
g67
sg66
g67
sbsg11
(lp817
g236
ag241
ag319
ag450
ag454
ag419
ag246
ag426
asg246
g0
(g242
g2
Ntp818
Rp819
(dp820
g14
I00
sg32
I01
sg95
I00
sg15
I00
sbsg426
g0
(g58
g2
Ntp821
Rp822
(dp823
g14
I00
sg32
I01
sg15
I00
sg62
g430
sg64
g67
sg66
g67
sbsbag0
(g75
g2
Ntp824
Rp825
(dp826
g14
I00
sg32
I01
sg15
I00
sg236
g0
(g91
g2
Ntp827
Rp828
(dp829
g14
I00
sg32
I01
sg95
g474
sg15
I00
sbsg319
g0
(g252
g2
Ntp830
Rp831
(dp832
g14
I00
sg32
I01
sg95
F1.479
sg15
I00
sbsg241
g0
(g242
g2
Ntp833
Rp834
(dp835
g14
I00
sg32
I01
sg95
I00
sg15
I00
sbsg481
g0
(g252
g2
Ntp836
Rp837
(dp838
g14
I00
sg32
I01
sg95
F0.0174
sg15
I00
sbsg485
g0
(g252
g2
Ntp839
Rp840
(dp841
g14
I00
sg32
I01
sg95
F0.0898
sg15
I00
sbsg11
(lp842
g236
ag319
ag241
ag481
ag485
ag246
asg246
g0
(g242
g2
Ntp843
Rp844
(dp845
g14
I00
sg32
I01
sg95
I00
sg15
I00
sbsbag0
(g75
g2
Ntp846
Rp847
(dp848
g14
I00
sg32
I01
sg15
I00
sg236
g0
(g91
g2
Ntp849
Rp850
(dp851
g14
I00
sg32
I01
sg95
g499
sg15
I00
sbsg319
g0
(g252
g2
Ntp852
Rp853
(dp854
g14
I00
sg32
I01
sg95
F1.479
sg15
I00
sbsg503
g0
(g252
g2
Ntp855
Rp856
(dp857
g14
I00
sg32
I01
sg95
F0.0678
sg15
I00
sbsg507
g0
(g252
g2
Ntp858
Rp859
(dp860
g14
I00
sg32
I01
sg95
F20.0
sg15
I00
sbsg511
g0
(g252
g2
Ntp861
Rp862
(dp863
g14
I00
sg32
I01
sg95
F0.0678
sg15
I00
sbsg515
g0
(g252
g2
Ntp864
Rp865
(dp866
g14
I00
sg32
I01
sg95
F0.0766
sg15
I00
sbsg241
g0
(g242
g2
Ntp867
Rp868
(dp869
g14
I00
sg32
I01
sg95
I01
sg15
I00
sbsg522
g0
(g58
g2
Ntp870
Rp871
(dp872
g14
I00
sg32
I01
sg15
I00
sg62
g526
sg64
g67
sg66
g67
sbsg11
(lp873
g236
ag319
ag503
ag507
ag511
ag515
ag241
ag522
ag528
ag529
ag246
ag530
asg529
g0
(g242
g2
Ntp874
Rp875
(dp876
g14
I00
sg32
I01
sg95
I01
sg15
I00
sbsg528
g0
(g534
g2
Ntp877
Rp878
(dp879
g14
I00
sg32
I01
sg95
g538
sg15
I00
sbsg246
g0
(g242
g2
Ntp880
Rp881
(dp882
g14
I00
sg32
I01
sg95
I00
sg15
I00
sbsg530
g0
(g252
g2
Ntp883
Rp884
(dp885
g14
I00
sg32
I01
sg95
F0.0766
sg15
I00
sbsbag0
(g75
g2
Ntp886
Rp887
(dp888
g14
I00
sg32
I01
sg548
g0
(g58
g2
Ntp889
Rp890
(dp891
g14
I00
sg32
I01
sg15
I00
sg62
g111
sg64
g67
sg66
g67
sbsg15
I00
sg236
g0
(g91
g2
Ntp892
Rp893
(dp894
g14
I00
sg32
I01
sg95
g555
sg15
I00
sbsg241
g0
(g242
g2
Ntp895
Rp896
(dp897
g14
I00
sg32
I01
sg95
I01
sg15
I00
sbsg246
g0
(g242
g2
Ntp898
Rp899
(dp900
g14
I00
sg32
I01
sg95
I00
sg15
I00
sbsg562
g0
(g58
g2
Ntp901
Rp902
(dp903
g14
I00
sg32
I01
sg15
I00
sg62
g116
sg64
g67
sg66
g67
sbsg566
g0
(g58
g2
Ntp904
Rp905
(dp906
g14
I00
sg32
I01
sg15
I00
sg62
S'reducedEgamma'
p907
sg64
g67
sg66
S'reducedConversions'
p908
sbsg11
(lp909
g548
ag236
ag241
ag246
ag566
ag562
asbag0
(g75
g2
Ntp910
Rp911
(dp912
g14
I00
sg32
I01
sg15
I00
sg236
g0
(g91
g2
Ntp913
Rp914
(dp915
g14
I00
sg32
I01
sg95
g579
sg15
I00
sbsg319
g0
(g252
g2
Ntp916
Rp917
(dp918
g14
I00
sg32
I01
sg95
F1.479
sg15
I00
sbsg241
g0
(g242
g2
Ntp919
Rp920
(dp921
g14
I00
sg32
I01
sg95
I00
sg15
I00
sbsg11
(lp922
g236
ag319
ag241
ag587
ag588
ag246
asg587
g0
(g589
g2
Ntp923
Rp924
(dp925
g14
I00
sg32
I01
sg95
I1
sg15
I00
sbsg588
g0
(g589
g2
Ntp926
Rp927
(dp928
g14
I00
sg32
I01
sg95
I2
sg15
I00
sbsg246
g0
(g242
g2
Ntp929
Rp930
(dp931
g14
I00
sg32
I01
sg95
I00
sg15
I00
sbsbatp932
Rp933
(dp934
g14
I00
sg32
I01
sg15
I00
sg33
I1
sbsg11
(lp935
g226
ag231
asbsg15
I00
sg603
g0
(g91
g2
Ntp936
Rp937
(dp938
g14
I00
sg32
I01
sg95
S'aa291aba714c148fcba156544907c440'
p939
sg15
I00
sbsg608
g0
(g242
g2
Ntp940
Rp941
(dp942
g14
I00
sg32
I00
sg95
I01
sg15
I00
sbsg11
(lp943
g222
ag603
ag608
asbag0
(g75
g2
Ntp944
Rp945
(dp946
g14
I00
sg32
I01
sg222
g0
(g75
g2
Ntp947
Rp948
(dp949
g14
I00
sg32
I01
sg15
I01
sg226
g0
(g91
g2
Ntp950
Rp951
(dp952
g14
I00
sg32
I01
sg95
S'cutBasedElectronID-Spring15-25ns-V1-standalone-tight'
p953
sg15
I00
sbsg231
g0
(g73
g20
(lp954
g0
(g75
g2
Ntp955
Rp956
(dp957
g14
I00
sg32
I01
sg15
I00
sg236
g0
(g91
g2
Ntp958
Rp959
(dp960
g14
I00
sg32
I01
sg95
g240
sg15
I00
sbsg241
g0
(g242
g2
Ntp961
Rp962
(dp963
g14
I00
sg32
I01
sg95
I00
sg15
I00
sbsg246
g0
(g242
g2
Ntp964
Rp965
(dp966
g14
I00
sg32
I01
sg95
I00
sg15
I00
sbsg11
(lp967
g241
ag251
ag236
ag246
asg251
g0
(g252
g2
Ntp968
Rp969
(dp970
g14
I00
sg32
I01
sg95
F5.0
sg15
I00
sbsbag0
(g75
g2
Ntp971
Rp972
(dp973
g14
I00
sg32
I01
sg15
I00
sg236
g0
(g91
g2
Ntp974
Rp975
(dp976
g14
I00
sg32
I01
sg95
g262
sg15
I00
sbsg241
g0
(g242
g2
Ntp977
Rp978
(dp979
g14
I00
sg32
I01
sg95
I00
sg15
I00
sbsg246
g0
(g242
g2
Ntp980
Rp981
(dp982
g14
I00
sg32
I01
sg95
I00
sg15
I00
sbsg269
g0
(g73
g20
(lp983
g0
(g75
g2
Ntp984
Rp985
(dp986
g14
I00
sg32
I01
sg15
I00
sg274
g0
(g252
g2
Ntp987
Rp988
(dp989
g14
I00
sg32
I01
sg95
F1.479
sg15
I00
sbsg278
g0
(g252
g2
Ntp990
Rp991
(dp992
g14
I00
sg32
I01
sg95
F0.0
sg15
I00
sbsg11
(lp993
g274
ag278
asbag0
(g75
g2
Ntp994
Rp995
(dp996
g14
I00
sg32
I01
sg15
I00
sg274
g0
(g252
g2
Ntp997
Rp998
(dp999
g14
I00
sg32
I01
sg95
F2.5
sg15
I00
sbsg278
g0
(g252
g2
Ntp1000
Rp1001
(dp1002
g14
I00
sg32
I01
sg95
F1.479
sg15
I00
sbsg11
(lp1003
g274
ag278
asbatp1004
Rp1005
(dp1006
g14
I00
sg32
I01
sg15
I00
sg33
I1
sbsg11
(lp1007
g241
ag297
ag236
ag269
ag246
asg297
g0
(g242
g2
Ntp1008
Rp1009
(dp1010
g14
I00
sg32
I01
sg95
I01
sg15
I00
sbsbag0
(g75
g2
Ntp1011
Rp1012
(dp1013
g14
I00
sg32
I01
sg15
I00
sg236
g0
(g91
g2
Ntp1014
Rp1015
(dp1016
g14
I00
sg32
I01
sg95
g307
sg15
I00
sbsg241
g0
(g242
g2
Ntp1017
Rp1018
(dp1019
g14
I00
sg32
I01
sg95
I00
sg15
I00
sbsg311
g0
(g252
g2
Ntp1020
Rp1021
(dp1022
g14
I00
sg32
I01
sg95
F0.00926
sg15
I00
sbsg315
g0
(g252
g2
Ntp1023
Rp1024
(dp1025
g14
I00
sg32
I01
sg95
F0.00724
sg15
I00
sbsg319
g0
(g252
g2
Ntp1026
Rp1027
(dp1028
g14
I00
sg32
I01
sg95
F1.479
sg15
I00
sbsg11
(lp1029
g236
ag241
ag311
ag315
ag319
ag246
asg246
g0
(g242
g2
Ntp1030
Rp1031
(dp1032
g14
I00
sg32
I01
sg95
I00
sg15
I00
sbsbag0
(g75
g2
Ntp1033
Rp1034
(dp1035
g14
I00
sg32
I01
sg15
I00
sg236
g0
(g91
g2
Ntp1036
Rp1037
(dp1038
g14
I00
sg32
I01
sg95
g333
sg15
I00
sbsg241
g0
(g242
g2
Ntp1039
Rp1040
(dp1041
g14
I00
sg32
I01
sg95
I00
sg15
I00
sbsg337
g0
(g252
g2
Ntp1042
Rp1043
(dp1044
g14
I00
sg32
I01
sg95
F0.0336
sg15
I00
sbsg319
g0
(g252
g2
Ntp1045
Rp1046
(dp1047
g14
I00
sg32
I01
sg95
F1.479
sg15
I00
sbsg344
g0
(g252
g2
Ntp1048
Rp1049
(dp1050
g14
I00
sg32
I01
sg95
F0.0918
sg15
I00
sbsg11
(lp1051
g236
ag241
ag337
ag319
ag344
ag246
asg246
g0
(g242
g2
Ntp1052
Rp1053
(dp1054
g14
I00
sg32
I01
sg95
I00
sg15
I00
sbsbag0
(g75
g2
Ntp1055
Rp1056
(dp1057
g14
I00
sg32
I01
sg15
I00
sg236
g0
(g91
g2
Ntp1058
Rp1059
(dp1060
g14
I00
sg32
I01
sg95
g358
sg15
I00
sbsg319
g0
(g252
g2
Ntp1061
Rp1062
(dp1063
g14
I00
sg32
I01
sg95
F1.479
sg15
I00
sbsg241
g0
(g242
g2
Ntp1064
Rp1065
(dp1066
g14
I00
sg32
I01
sg95
I00
sg15
I00
sbsg365
g0
(g252
g2
Ntp1067
Rp1068
(dp1069
g14
I00
sg32
I01
sg95
F0.0101
sg15
I00
sbsg11
(lp1070
g236
ag319
ag241
ag246
ag370
ag365
asg370
g0
(g252
g2
Ntp1071
Rp1072
(dp1073
g14
I00
sg32
I01
sg95
F0.0279
sg15
I00
sbsg246
g0
(g242
g2
Ntp1074
Rp1075
(dp1076
g14
I00
sg32
I01
sg95
I00
sg15
I00
sbsbag0
(g75
g2
Ntp1077
Rp1078
(dp1079
g14
I00
sg32
I01
sg15
I00
sg236
g0
(g91
g2
Ntp1080
Rp1081
(dp1082
g14
I00
sg32
I01
sg95
g383
sg15
I00
sbsg319
g0
(g252
g2
Ntp1083
Rp1084
(dp1085
g14
I00
sg32
I01
sg95
F1.479
sg15
I00
sbsg241
g0
(g242
g2
Ntp1086
Rp1087
(dp1088
g14
I00
sg32
I01
sg95
I00
sg15
I00
sbsg390
g0
(g252
g2
Ntp1089
Rp1090
(dp1091
g14
I00
sg32
I01
sg95
F0.0615
sg15
I00
sbsg394
g0
(g252
g2
Ntp1092
Rp1093
(dp1094
g14
I00
sg32
I01
sg95
F0.0597
sg15
I00
sbsg11
(lp1095
g236
ag319
ag241
ag390
ag394
ag246
asg246
g0
(g242
g2
Ntp1096
Rp1097
(dp1098
g14
I00
sg32
I01
sg95
I00
sg15
I00
sbsbag0
(g75
g2
Ntp1099
Rp1100
(dp1101
g14
I00
sg32
I01
sg15
I00
sg236
g0
(g91
g2
Ntp1102
Rp1103
(dp1104
g14
I00
sg32
I01
sg95
g408
sg15
I00
sbsg241
g0
(g242
g2
Ntp1105
Rp1106
(dp1107
g14
I00
sg32
I01
sg95
I01
sg15
I00
sbsg319
g0
(g252
g2
Ntp1108
Rp1109
(dp1110
g14
I00
sg32
I01
sg95
F1.479
sg15
I00
sbsg415
g0
(g252
g2
Ntp1111
Rp1112
(dp1113
g14
I00
sg32
I01
sg95
F0.0111
sg15
I00
sbsg419
g0
(g58
g2
Ntp1114
Rp1115
(dp1116
g14
I00
sg32
I01
sg15
I00
sg62
g423
sg64
g67
sg66
g67
sbsg11
(lp1117
g236
ag241
ag319
ag415
ag419
ag425
ag246
ag426
asg426
g0
(g58
g2
Ntp1118
Rp1119
(dp1120
g14
I00
sg32
I01
sg15
I00
sg62
g430
sg64
g67
sg66
g67
sbsg246
g0
(g242
g2
Ntp1121
Rp1122
(dp1123
g14
I00
sg32
I01
sg95
I00
sg15
I00
sbsg425
g0
(g252
g2
Ntp1124
Rp1125
(dp1126
g14
I00
sg32
I01
sg95
F0.0351
sg15
I00
sbsbag0
(g75
g2
Ntp1127
Rp1128
(dp1129
g14
I00
sg32
I01
sg15
I00
sg236
g0
(g91
g2
Ntp1130
Rp1131
(dp1132
g14
I00
sg32
I01
sg95
g443
sg15
I00
sbsg241
g0
(g242
g2
Ntp1133
Rp1134
(dp1135
g14
I00
sg32
I01
sg95
I01
sg15
I00
sbsg319
g0
(g252
g2
Ntp1136
Rp1137
(dp1138
g14
I00
sg32
I01
sg95
F1.479
sg15
I00
sbsg450
g0
(g252
g2
Ntp1139
Rp1140
(dp1141
g14
I00
sg32
I01
sg95
F0.417
sg15
I00
sbsg454
g0
(g252
g2
Ntp1142
Rp1143
(dp1144
g14
I00
sg32
I01
sg95
F0.0466
sg15
I00
sbsg419
g0
(g58
g2
Ntp1145
Rp1146
(dp1147
g14
I00
sg32
I01
sg15
I00
sg62
g423
sg64
g67
sg66
g67
sbsg11
(lp1148
g236
ag241
ag319
ag450
ag454
ag419
ag246
ag426
asg246
g0
(g242
g2
Ntp1149
Rp1150
(dp1151
g14
I00
sg32
I01
sg95
I00
sg15
I00
sbsg426
g0
(g58
g2
Ntp1152
Rp1153
(dp1154
g14
I00
sg32
I01
sg15
I00
sg62
g430
sg64
g67
sg66
g67
sbsbag0
(g75
g2
Ntp1155
Rp1156
(dp1157
g14
I00
sg32
I01
sg15
I00
sg236
g0
(g91
g2
Ntp1158
Rp1159
(dp1160
g14
I00
sg32
I01
sg95
g474
sg15
I00
sbsg319
g0
(g252
g2
Ntp1161
Rp1162
(dp1163
g14
I00
sg32
I01
sg95
F1.479
sg15
I00
sbsg241
g0
(g242
g2
Ntp1164
Rp1165
(dp1166
g14
I00
sg32
I01
sg95
I00
sg15
I00
sbsg481
g0
(g252
g2
Ntp1167
Rp1168
(dp1169
g14
I00
sg32
I01
sg95
F0.012
sg15
I00
sbsg485
g0
(g252
g2
Ntp1170
Rp1171
(dp1172
g14
I00
sg32
I01
sg95
F0.00999
sg15
I00
sbsg11
(lp1173
g236
ag319
ag241
ag481
ag485
ag246
asg246
g0
(g242
g2
Ntp1174
Rp1175
(dp1176
g14
I00
sg32
I01
sg95
I00
sg15
I00
sbsbag0
(g75
g2
Ntp1177
Rp1178
(dp1179
g14
I00
sg32
I01
sg15
I00
sg236
g0
(g91
g2
Ntp1180
Rp1181
(dp1182
g14
I00
sg32
I01
sg95
g499
sg15
I00
sbsg319
g0
(g252
g2
Ntp1183
Rp1184
(dp1185
g14
I00
sg32
I01
sg95
F1.479
sg15
I00
sbsg503
g0
(g252
g2
Ntp1186
Rp1187
(dp1188
g14
I00
sg32
I01
sg95
F0.0646
sg15
I00
sbsg507
g0
(g252
g2
Ntp1189
Rp1190
(dp1191
g14
I00
sg32
I01
sg95
F20.0
sg15
I00
sbsg511
g0
(g252
g2
Ntp1192
Rp1193
(dp1194
g14
I00
sg32
I01
sg95
F0.0646
sg15
I00
sbsg515
g0
(g252
g2
Ntp1195
Rp1196
(dp1197
g14
I00
sg32
I01
sg95
F0.0354
sg15
I00
sbsg241
g0
(g242
g2
Ntp1198
Rp1199
(dp1200
g14
I00
sg32
I01
sg95
I01
sg15
I00
sbsg522
g0
(g58
g2
Ntp1201
Rp1202
(dp1203
g14
I00
sg32
I01
sg15
I00
sg62
g526
sg64
g67
sg66
g67
sbsg11
(lp1204
g236
ag319
ag503
ag507
ag511
ag515
ag241
ag522
ag528
ag529
ag246
ag530
asg529
g0
(g242
g2
Ntp1205
Rp1206
(dp1207
g14
I00
sg32
I01
sg95
I01
sg15
I00
sbsg528
g0
(g534
g2
Ntp1208
Rp1209
(dp1210
g14
I00
sg32
I01
sg95
g538
sg15
I00
sbsg246
g0
(g242
g2
Ntp1211
Rp1212
(dp1213
g14
I00
sg32
I01
sg95
I00
sg15
I00
sbsg530
g0
(g252
g2
Ntp1214
Rp1215
(dp1216
g14
I00
sg32
I01
sg95
F0.0354
sg15
I00
sbsbag0
(g75
g2
Ntp1217
Rp1218
(dp1219
g14
I00
sg32
I01
sg548
g0
(g58
g2
Ntp1220
Rp1221
(dp1222
g14
I00
sg32
I01
sg15
I00
sg62
g111
sg64
g67
sg66
g67
sbsg15
I00
sg236
g0
(g91
g2
Ntp1223
Rp1224
(dp1225
g14
I00
sg32
I01
sg95
g555
sg15
I00
sbsg241
g0
(g242
g2
Ntp1226
Rp1227
(dp1228
g14
I00
sg32
I01
sg95
I01
sg15
I00
sbsg246
g0
(g242
g2
Ntp1229
Rp1230
(dp1231
g14
I00
sg32
I01
sg95
I00
sg15
I00
sbsg562
g0
(g58
g2
Ntp1232
Rp1233
(dp1234
g14
I00
sg32
I01
sg15
I00
sg62
g116
sg64
g67
sg66
g67
sbsg566
g0
(g58
g2
Ntp1235
Rp1236
(dp1237
g14
I00
sg32
I01
sg15
I00
sg62
S'reducedEgamma'
p1238
sg64
g67
sg66
S'reducedConversions'
p1239
sbsg11
(lp1240
g548
ag236
ag241
ag246
ag566
ag562
asbag0
(g75
g2
Ntp1241
Rp1242
(dp1243
g14
I00
sg32
I01
sg15
I00
sg236
g0
(g91
g2
Ntp1244
Rp1245
(dp1246
g14
I00
sg32
I01
sg95
g579
sg15
I00
sbsg319
g0
(g252
g2
Ntp1247
Rp1248
(dp1249
g14
I00
sg32
I01
sg95
F1.479
sg15
I00
sbsg241
g0
(g242
g2
Ntp1250
Rp1251
(dp1252
g14
I00
sg32
I01
sg95
I00
sg15
I00
sbsg11
(lp1253
g236
ag319
ag241
ag587
ag588
ag246
asg587
g0
(g589
g2
Ntp1254
Rp1255
(dp1256
g14
I00
sg32
I01
sg95
I1
sg15
I00
sbsg588
g0
(g589
g2
Ntp1257
Rp1258
(dp1259
g14
I00
sg32
I01
sg95
I2
sg15
I00
sbsg246
g0
(g242
g2
Ntp1260
Rp1261
(dp1262
g14
I00
sg32
I01
sg95
I00
sg15
I00
sbsbatp1263
Rp1264
(dp1265
g14
I00
sg32
I01
sg15
I00
sg33
I1
sbsg11
(lp1266
g226
ag231
asbsg15
I00
sg603
g0
(g91
g2
Ntp1267
Rp1268
(dp1269
g14
I00
sg32
I01
sg95
S'4e13b87c0573d3c8ebf91d446fa1d90f'
p1270
sg15
I00
sbsg608
g0
(g242
g2
Ntp1271
Rp1272
(dp1273
g14
I00
sg32
I00
sg95
I01
sg15
I00
sbsg11
(lp1274
g222
ag603
ag608
asbag0
(g75
g2
Ntp1275
Rp1276
(dp1277
g14
I00
sg32
I01
sg222
g0
(g75
g2
Ntp1278
Rp1279
(dp1280
g14
I00
sg32
I01
sg15
I01
sg226
g0
(g91
g2
Ntp1281
Rp1282
(dp1283
g14
I00
sg32
I01
sg95
S'cutBasedElectronID-Spring15-25ns-V1-standalone-veto'
p1284
sg15
I00
sbsg231
g0
(g73
g20
(lp1285
g0
(g75
g2
Ntp1286
Rp1287
(dp1288
g14
I00
sg32
I01
sg15
I00
sg236
g0
(g91
g2
Ntp1289
Rp1290
(dp1291
g14
I00
sg32
I01
sg95
g240
sg15
I00
sbsg241
g0
(g242
g2
Ntp1292
Rp1293
(dp1294
g14
I00
sg32
I01
sg95
I00
sg15
I00
sbsg246
g0
(g242
g2
Ntp1295
Rp1296
(dp1297
g14
I00
sg32
I01
sg95
I00
sg15
I00
sbsg11
(lp1298
g241
ag251
ag236
ag246
asg251
g0
(g252
g2
Ntp1299
Rp1300
(dp1301
g14
I00
sg32
I01
sg95
F5.0
sg15
I00
sbsbag0
(g75
g2
Ntp1302
Rp1303
(dp1304
g14
I00
sg32
I01
sg15
I00
sg236
g0
(g91
g2
Ntp1305
Rp1306
(dp1307
g14
I00
sg32
I01
sg95
g262
sg15
I00
sbsg241
g0
(g242
g2
Ntp1308
Rp1309
(dp1310
g14
I00
sg32
I01
sg95
I00
sg15
I00
sbsg246
g0
(g242
g2
Ntp1311
Rp1312
(dp1313
g14
I00
sg32
I01
sg95
I00
sg15
I00
sbsg269
g0
(g73
g20
(lp1314
g0
(g75
g2
Ntp1315
Rp1316
(dp1317
g14
I00
sg32
I01
sg15
I00
sg274
g0
(g252
g2
Ntp1318
Rp1319
(dp1320
g14
I00
sg32
I01
sg95
F1.479
sg15
I00
sbsg278
g0
(g252
g2
Ntp1321
Rp1322
(dp1323
g14
I00
sg32
I01
sg95
F0.0
sg15
I00
sbsg11
(lp1324
g274
ag278
asbag0
(g75
g2
Ntp1325
Rp1326
(dp1327
g14
I00
sg32
I01
sg15
I00
sg274
g0
(g252
g2
Ntp1328
Rp1329
(dp1330
g14
I00
sg32
I01
sg95
F2.5
sg15
I00
sbsg278
g0
(g252
g2
Ntp1331
Rp1332
(dp1333
g14
I00
sg32
I01
sg95
F1.479
sg15
I00
sbsg11
(lp1334
g274
ag278
asbatp1335
Rp1336
(dp1337
g14
I00
sg32
I01
sg15
I00
sg33
I1
sbsg11
(lp1338
g241
ag297
ag236
ag269
ag246
asg297
g0
(g242
g2
Ntp1339
Rp1340
(dp1341
g14
I00
sg32
I01
sg95
I01
sg15
I00
sbsbag0
(g75
g2
Ntp1342
Rp1343
(dp1344
g14
I00
sg32
I01
sg15
I00
sg236
g0
(g91
g2
Ntp1345
Rp1346
(dp1347
g14
I00
sg32
I01
sg95
g307
sg15
I00
sbsg241
g0
(g242
g2
Ntp1348
Rp1349
(dp1350
g14
I00
sg32
I01
sg95
I00
sg15
I00
sbsg311
g0
(g252
g2
Ntp1351
Rp1352
(dp1353
g14
I00
sg32
I01
sg95
F0.0152
sg15
I00
sbsg315
g0
(g252
g2
Ntp1354
Rp1355
(dp1356
g14
I00
sg32
I01
sg95
F0.0113
sg15
I00
sbsg319
g0
(g252
g2
Ntp1357
Rp1358
(dp1359
g14
I00
sg32
I01
sg95
F1.479
sg15
I00
sbsg11
(lp1360
g236
ag241
ag311
ag315
ag319
ag246
asg246
g0
(g242
g2
Ntp1361
Rp1362
(dp1363
g14
I00
sg32
I01
sg95
I00
sg15
I00
sbsbag0
(g75
g2
Ntp1364
Rp1365
(dp1366
g14
I00
sg32
I01
sg15
I00
sg236
g0
(g91
g2
Ntp1367
Rp1368
(dp1369
g14
I00
sg32
I01
sg95
g333
sg15
I00
sbsg241
g0
(g242
g2
Ntp1370
Rp1371
(dp1372
g14
I00
sg32
I01
sg95
I00
sg15
I00
sbsg337
g0
(g252
g2
Ntp1373
Rp1374
(dp1375
g14
I00
sg32
I01
sg95
F0.216
sg15
I00
sbsg319
g0
(g252
g2
Ntp1376
Rp1377
(dp1378
g14
I00
sg32
I01
sg95
F1.479
sg15
I00
sbsg344
g0
(g252
g2
Ntp1379
Rp1380
(dp1381
g14
I00
sg32
I01
sg95
F0.237
sg15
I00
sbsg11
(lp1382
g236
ag241
ag337
ag319
ag344
ag246
asg246
g0
(g242
g2
Ntp1383
Rp1384
(dp1385
g14
I00
sg32
I01
sg95
I00
sg15
I00
sbsbag0
(g75
g2
Ntp1386
Rp1387
(dp1388
g14
I00
sg32
I01
sg15
I00
sg236
g0
(g91
g2
Ntp1389
Rp1390
(dp1391
g14
I00
sg32
I01
sg95
g358
sg15
I00
sbsg319
g0
(g252
g2
Ntp1392
Rp1393
(dp1394
g14
I00
sg32
I01
sg95
F1.479
sg15
I00
sbsg241
g0
(g242
g2
Ntp1395
Rp1396
(dp1397
g14
I00
sg32
I01
sg95
I00
sg15
I00
sbsg365
g0
(g252
g2
Ntp1398
Rp1399
(dp1400
g14
I00
sg32
I01
sg95
F0.0114
sg15
I00
sbsg11
(lp1401
g236
ag319
ag241
ag246
ag370
ag365
asg370
g0
(g252
g2
Ntp1402
Rp1403
(dp1404
g14
I00
sg32
I01
sg95
F0.0352
sg15
I00
sbsg246
g0
(g242
g2
Ntp1405
Rp1406
(dp1407
g14
I00
sg32
I01
sg95
I00
sg15
I00
sbsbag0
(g75
g2
Ntp1408
Rp1409
(dp1410
g14
I00
sg32
I01
sg15
I00
sg236
g0
(g91
g2
Ntp1411
Rp1412
(dp1413
g14
I00
sg32
I01
sg95
g383
sg15
I00
sbsg319
g0
(g252
g2
Ntp1414
Rp1415
(dp1416
g14
I00
sg32
I01
sg95
F1.479
sg15
I00
sbsg241
g0
(g242
g2
Ntp1417
Rp1418
(dp1419
g14
I00
sg32
I01
sg95
I00
sg15
I00
sbsg390
g0
(g252
g2
Ntp1420
Rp1421
(dp1422
g14
I00
sg32
I01
sg95
F0.116
sg15
I00
sbsg394
g0
(g252
g2
Ntp1423
Rp1424
(dp1425
g14
I00
sg32
I01
sg95
F0.181
sg15
I00
sbsg11
(lp1426
g236
ag319
ag241
ag390
ag394
ag246
asg246
g0
(g242
g2
Ntp1427
Rp1428
(dp1429
g14
I00
sg32
I01
sg95
I00
sg15
I00
sbsbag0
(g75
g2
Ntp1430
Rp1431
(dp1432
g14
I00
sg32
I01
sg15
I00
sg236
g0
(g91
g2
Ntp1433
Rp1434
(dp1435
g14
I00
sg32
I01
sg95
g408
sg15
I00
sbsg241
g0
(g242
g2
Ntp1436
Rp1437
(dp1438
g14
I00
sg32
I01
sg95
I01
sg15
I00
sbsg319
g0
(g252
g2
Ntp1439
Rp1440
(dp1441
g14
I00
sg32
I01
sg95
F1.479
sg15
I00
sbsg415
g0
(g252
g2
Ntp1442
Rp1443
(dp1444
g14
I00
sg32
I01
sg95
F0.0564
sg15
I00
sbsg419
g0
(g58
g2
Ntp1445
Rp1446
(dp1447
g14
I00
sg32
I01
sg15
I00
sg62
g423
sg64
g67
sg66
g67
sbsg11
(lp1448
g236
ag241
ag319
ag415
ag419
ag425
ag246
ag426
asg426
g0
(g58
g2
Ntp1449
Rp1450
(dp1451
g14
I00
sg32
I01
sg15
I00
sg62
g430
sg64
g67
sg66
g67
sbsg246
g0
(g242
g2
Ntp1452
Rp1453
(dp1454
g14
I00
sg32
I01
sg95
I00
sg15
I00
sbsg425
g0
(g252
g2
Ntp1455
Rp1456
(dp1457
g14
I00
sg32
I01
sg95
F0.222
sg15
I00
sbsbag0
(g75
g2
Ntp1458
Rp1459
(dp1460
g14
I00
sg32
I01
sg15
I00
sg236
g0
(g91
g2
Ntp1461
Rp1462
(dp1463
g14
I00
sg32
I01
sg95
g443
sg15
I00
sbsg241
g0
(g242
g2
Ntp1464
Rp1465
(dp1466
g14
I00
sg32
I01
sg95
I01
sg15
I00
sbsg319
g0
(g252
g2
Ntp1467
Rp1468
(dp1469
g14
I00
sg32
I01
sg95
F1.479
sg15
I00
sbsg450
g0
(g252
g2
Ntp1470
Rp1471
(dp1472
g14
I00
sg32
I01
sg95
F0.921
sg15
I00
sbsg454
g0
(g252
g2
Ntp1473
Rp1474
(dp1475
g14
I00
sg32
I01
sg95
F0.472
sg15
I00
sbsg419
g0
(g58
g2
Ntp1476
Rp1477
(dp1478
g14
I00
sg32
I01
sg15
I00
sg62
g423
sg64
g67
sg66
g67
sbsg11
(lp1479
g236
ag241
ag319
ag450
ag454
ag419
ag246
ag426
asg246
g0
(g242
g2
Ntp1480
Rp1481
(dp1482
g14
I00
sg32
I01
sg95
I00
sg15
I00
sbsg426
g0
(g58
g2
Ntp1483
Rp1484
(dp1485
g14
I00
sg32
I01
sg15
I00
sg62
g430
sg64
g67
sg66
g67
sbsbag0
(g75
g2
Ntp1486
Rp1487
(dp1488
g14
I00
sg32
I01
sg15
I00
sg236
g0
(g91
g2
Ntp1489
Rp1490
(dp1491
g14
I00
sg32
I01
sg95
g474
sg15
I00
sbsg319
g0
(g252
g2
Ntp1492
Rp1493
(dp1494
g14
I00
sg32
I01
sg95
F1.479
sg15
I00
sbsg241
g0
(g242
g2
Ntp1495
Rp1496
(dp1497
g14
I00
sg32
I01
sg95
I00
sg15
I00
sbsg481
g0
(g252
g2
Ntp1498
Rp1499
(dp1500
g14
I00
sg32
I01
sg95
F0.207
sg15
I00
sbsg485
g0
(g252
g2
Ntp1501
Rp1502
(dp1503
g14
I00
sg32
I01
sg95
F0.174
sg15
I00
sbsg11
(lp1504
g236
ag319
ag241
ag481
ag485
ag246
asg246
g0
(g242
g2
Ntp1505
Rp1506
(dp1507
g14
I00
sg32
I01
sg95
I00
sg15
I00
sbsbag0
(g75
g2
Ntp1508
Rp1509
(dp1510
g14
I00
sg32
I01
sg15
I00
sg236
g0
(g91
g2
Ntp1511
Rp1512
(dp1513
g14
I00
sg32
I01
sg95
g499
sg15
I00
sbsg319
g0
(g252
g2
Ntp1514
Rp1515
(dp1516
g14
I00
sg32
I01
sg95
F1.479
sg15
I00
sbsg503
g0
(g252
g2
Ntp1517
Rp1518
(dp1519
g14
I00
sg32
I01
sg95
F0.144
sg15
I00
sbsg507
g0
(g252
g2
Ntp1520
Rp1521
(dp1522
g14
I00
sg32
I01
sg95
F20.0
sg15
I00
sbsg511
g0
(g252
g2
Ntp1523
Rp1524
(dp1525
g14
I00
sg32
I01
sg95
F0.144
sg15
I00
sbsg515
g0
(g252
g2
Ntp1526
Rp1527
(dp1528
g14
I00
sg32
I01
sg95
F0.126
sg15
I00
sbsg241
g0
(g242
g2
Ntp1529
Rp1530
(dp1531
g14
I00
sg32
I01
sg95
I01
sg15
I00
sbsg522
g0
(g58
g2
Ntp1532
Rp1533
(dp1534
g14
I00
sg32
I01
sg15
I00
sg62
g526
sg64
g67
sg66
g67
sbsg11
(lp1535
g236
ag319
ag503
ag507
ag511
ag515
ag241
ag522
ag528
ag529
ag246
ag530
asg529
g0
(g242
g2
Ntp1536
Rp1537
(dp1538
g14
I00
sg32
I01
sg95
I01
sg15
I00
sbsg528
g0
(g534
g2
Ntp1539
Rp1540
(dp1541
g14
I00
sg32
I01
sg95
g538
sg15
I00
sbsg246
g0
(g242
g2
Ntp1542
Rp1543
(dp1544
g14
I00
sg32
I01
sg95
I00
sg15
I00
sbsg530
g0
(g252
g2
Ntp1545
Rp1546
(dp1547
g14
I00
sg32
I01
sg95
F0.126
sg15
I00
sbsbag0
(g75
g2
Ntp1548
Rp1549
(dp1550
g14
I00
sg32
I01
sg548
g0
(g58
g2
Ntp1551
Rp1552
(dp1553
g14
I00
sg32
I01
sg15
I00
sg62
g111
sg64
g67
sg66
g67
sbsg15
I00
sg236
g0
(g91
g2
Ntp1554
Rp1555
(dp1556
g14
I00
sg32
I01
sg95
g555
sg15
I00
sbsg241
g0
(g242
g2
Ntp1557
Rp1558
(dp1559
g14
I00
sg32
I01
sg95
I01
sg15
I00
sbsg246
g0
(g242
g2
Ntp1560
Rp1561
(dp1562
g14
I00
sg32
I01
sg95
I00
sg15
I00
sbsg562
g0
(g58
g2
Ntp1563
Rp1564
(dp1565
g14
I00
sg32
I01
sg15
I00
sg62
g116
sg64
g67
sg66
g67
sbsg566
g0
(g58
g2
Ntp1566
Rp1567
(dp1568
g14
I00
sg32
I01
sg15
I00
sg62
S'reducedEgamma'
p1569
sg64
g67
sg66
S'reducedConversions'
p1570
sbsg11
(lp1571
g548
ag236
ag241
ag246
ag566
ag562
asbag0
(g75
g2
Ntp1572
Rp1573
(dp1574
g14
I00
sg32
I01
sg15
I00
sg236
g0
(g91
g2
Ntp1575
Rp1576
(dp1577
g14
I00
sg32
I01
sg95
g579
sg15
I00
sbsg319
g0
(g252
g2
Ntp1578
Rp1579
(dp1580
g14
I00
sg32
I01
sg95
F1.479
sg15
I00
sbsg241
g0
(g242
g2
Ntp1581
Rp1582
(dp1583
g14
I00
sg32
I01
sg95
I00
sg15
I00
sbsg11
(lp1584
g236
ag319
ag241
ag587
ag588
ag246
asg587
g0
(g589
g2
Ntp1585
Rp1586
(dp1587
g14
I00
sg32
I01
sg95
I3
sg15
I00
sbsg588
g0
(g589
g2
Ntp1588
Rp1589
(dp1590
g14
I00
sg32
I01
sg95
I2
sg15
I00
sbsg246
g0
(g242
g2
Ntp1591
Rp1592
(dp1593
g14
I00
sg32
I01
sg95
I00
sg15
I00
sbsbatp1594
Rp1595
(dp1596
g14
I00
sg32
I01
sg15
I00
sg33
I1
sbsg11
(lp1597
g226
ag231
asbsg15
I00
sg603
g0
(g91
g2
Ntp1598
Rp1599
(dp1600
g14
I00
sg32
I01
sg95
S'202030579ee3eec90fdc2d236ba3de7e'
p1601
sg15
I00
sbsg608
g0
(g242
g2
Ntp1602
Rp1603
(dp1604
g14
I00
sg32
I00
sg95
I01
sg15
I00
sbsg11
(lp1605
g222
ag603
ag608
asbag0
(g75
g2
Ntp1606
Rp1607
(dp1608
g14
I00
sg32
I01
sg222
g0
(g75
g2
Ntp1609
Rp1610
(dp1611
g14
I00
sg32
I01
sg15
I01
sg226
g0
(g91
g2
Ntp1612
Rp1613
(dp1614
g14
I00
sg32
I01
sg95
S'heepElectronID-HEEPV60'
p1615
sg15
I00
sbsg231
g0
(g73
g20
(lp1616
g0
(g75
g2
Ntp1617
Rp1618
(dp1619
g14
I00
sg32
I01
sg15
I00
sg236
g0
(g91
g2
Ntp1620
Rp1621
(dp1622
g14
I00
sg32
I01
sg95
g240
sg15
I00
sbsg241
g0
(g242
g2
Ntp1623
Rp1624
(dp1625
g14
I00
sg32
I01
sg95
I00
sg15
I00
sbsg246
g0
(g242
g2
Ntp1626
Rp1627
(dp1628
g14
I00
sg32
I01
sg95
I00
sg15
I00
sbsg11
(lp1629
g241
ag251
ag236
ag246
asg251
g0
(g252
g2
Ntp1630
Rp1631
(dp1632
g14
I00
sg32
I01
sg95
F35.0
sg15
I00
sbsbag0
(g75
g2
Ntp1633
Rp1634
(dp1635
g14
I00
sg32
I01
sg15
I00
sg236
g0
(g91
g2
Ntp1636
Rp1637
(dp1638
g14
I00
sg32
I01
sg95
g262
sg15
I00
sbsg241
g0
(g242
g2
Ntp1639
Rp1640
(dp1641
g14
I00
sg32
I01
sg95
I00
sg15
I00
sbsg246
g0
(g242
g2
Ntp1642
Rp1643
(dp1644
g14
I00
sg32
I01
sg95
I00
sg15
I00
sbsg269
g0
(g73
g20
(lp1645
g0
(g75
g2
Ntp1646
Rp1647
(dp1648
g14
I00
sg32
I01
sg15
I00
sg274
g0
(g252
g2
Ntp1649
Rp1650
(dp1651
g14
I00
sg32
I01
sg95
F1.4442
sg15
I00
sbsg278
g0
(g252
g2
Ntp1652
Rp1653
(dp1654
g14
I00
sg32
I01
sg95
F0.0
sg15
I00
sbsg11
(lp1655
g274
ag278
asbag0
(g75
g2
Ntp1656
Rp1657
(dp1658
g14
I00
sg32
I01
sg15
I00
sg274
g0
(g252
g2
Ntp1659
Rp1660
(dp1661
g14
I00
sg32
I01
sg95
F2.5
sg15
I00
sbsg278
g0
(g252
g2
Ntp1662
Rp1663
(dp1664
g14
I00
sg32
I01
sg95
F1.566
sg15
I00
sbsg11
(lp1665
g274
ag278
asbatp1666
Rp1667
(dp1668
g14
I00
sg32
I01
sg15
I00
sg33
I1
sbsg11
(lp1669
g241
ag297
ag236
ag269
ag246
asg297
g0
(g242
g2
Ntp1670
Rp1671
(dp1672
g14
I00
sg32
I01
sg95
I01
sg15
I00
sbsbag0
(g75
g2
Ntp1673
Rp1674
(dp1675
g14
I00
sg32
I01
sg15
I00
sg236
g0
(g91
g2
Ntp1676
Rp1677
(dp1678
g14
I00
sg32
I01
sg95
S'GsfEleDEtaInSeedCut'
p1679
sg15
I00
sbsg319
g0
(g252
g2
Ntp1680
Rp1681
(dp1682
g14
I00
sg32
I01
sg95
F1.479
sg15
I00
sbsS'dEtaInSeedCutValueEB'
p1683
g0
(g252
g2
Ntp1684
Rp1685
(dp1686
g14
I00
sg32
I01
sg95
F0.004
sg15
I00
sbsg241
g0
(g242
g2
Ntp1687
Rp1688
(dp1689
g14
I00
sg32
I01
sg95
I00
sg15
I00
sbsS'dEtaInSeedCutValueEE'
p1690
g0
(g252
g2
Ntp1691
Rp1692
(dp1693
g14
I00
sg32
I01
sg95
F0.006
sg15
I00
sbsg11
(lp1694
g236
ag319
ag1683
ag241
ag1690
ag246
asg246
g0
(g242
g2
Ntp1695
Rp1696
(dp1697
g14
I00
sg32
I01
sg95
I00
sg15
I00
sbsbag0
(g75
g2
Ntp1698
Rp1699
(dp1700
g14
I00
sg32
I01
sg15
I00
sg236
g0
(g91
g2
Ntp1701
Rp1702
(dp1703
g14
I00
sg32
I01
sg95
g333
sg15
I00
sbsg241
g0
(g242
g2
Ntp1704
Rp1705
(dp1706
g14
I00
sg32
I01
sg95
I00
sg15
I00
sbsg337
g0
(g252
g2
Ntp1707
Rp1708
(dp1709
g14
I00
sg32
I01
sg95
F0.06
sg15
I00
sbsg319
g0
(g252
g2
Ntp1710
Rp1711
(dp1712
g14
I00
sg32
I01
sg95
F1.479
sg15
I00
sbsg344
g0
(g252
g2
Ntp1713
Rp1714
(dp1715
g14
I00
sg32
I01
sg95
F0.06
sg15
I00
sbsg11
(lp1716
g236
ag241
ag337
ag319
ag344
ag246
asg246
g0
(g242
g2
Ntp1717
Rp1718
(dp1719
g14
I00
sg32
I01
sg95
I00
sg15
I00
sbsbag0
(g75
g2
Ntp1720
Rp1721
(dp1722
g14
I00
sg32
I01
sg15
I00
sg236
g0
(g91
g2
Ntp1723
Rp1724
(dp1725
g14
I00
sg32
I01
sg95
g358
sg15
I00
sbsg319
g0
(g252
g2
Ntp1726
Rp1727
(dp1728
g14
I00
sg32
I01
sg95
F1.479
sg15
I00
sbsg241
g0
(g242
g2
Ntp1729
Rp1730
(dp1731
g14
I00
sg32
I01
sg95
I00
sg15
I00
sbsg365
g0
(g252
g2
Ntp1732
Rp1733
(dp1734
g14
I00
sg32
I01
sg95
I9999
sg15
I00
sbsg11
(lp1735
g236
ag319
ag241
ag246
ag370
ag365
asg370
g0
(g252
g2
Ntp1736
Rp1737
(dp1738
g14
I00
sg32
I01
sg95
F0.03
sg15
I00
sbsg246
g0
(g242
g2
Ntp1739
Rp1740
(dp1741
g14
I00
sg32
I01
sg95
I00
sg15
I00
sbsbag0
(g75
g2
Ntp1742
Rp1743
(dp1744
g14
I00
sg32
I01
sg15
I00
sg236
g0
(g91
g2
Ntp1745
Rp1746
(dp1747
g14
I00
sg32
I01
sg95
S'GsfEleFull5x5E2x5OverE5x5Cut'
p1748
sg15
I00
sbsg241
g0
(g242
g2
Ntp1749
Rp1750
(dp1751
g14
I00
sg32
I01
sg95
I00
sg15
I00
sbsg246
g0
(g242
g2
Ntp1752
Rp1753
(dp1754
g14
I00
sg32
I01
sg95
I00
sg15
I00
sbsS'minE2x5OverE5x5EB'
p1755
g0
(g252
g2
Ntp1756
Rp1757
(dp1758
g14
I00
sg32
I01
sg95
F0.94
sg15
I00
sbsS'minE2x5OverE5x5EE'
p1759
g0
(g252
g2
Ntp1760
Rp1761
(dp1762
g14
I00
sg32
I01
sg95
F-1.0
sg15
I00
sbsg11
(lp1763
g236
ag241
ag246
ag1755
ag1759
aS'minE1x5OverE5x5EE'
p1764
aS'minE1x5OverE5x5EB'
p1765
asg1764
g0
(g252
g2
Ntp1766
Rp1767
(dp1768
g14
I00
sg32
I01
sg95
F-1.0
sg15
I00
sbsg1765
g0
(g252
g2
Ntp1769
Rp1770
(dp1771
g14
I00
sg32
I01
sg95
F0.83
sg15
I00
sbsbag0
(g75
g2
Ntp1772
Rp1773
(dp1774
g14
I00
sg32
I01
sg15
I00
sg236
g0
(g91
g2
Ntp1775
Rp1776
(dp1777
g14
I00
sg32
I01
sg95
S'GsfEleHadronicOverEMLinearCut'
p1778
sg15
I00
sbsg241
g0
(g242
g2
Ntp1779
Rp1780
(dp1781
g14
I00
sg32
I01
sg95
I00
sg15
I00
sbsg246
g0
(g242
g2
Ntp1782
Rp1783
(dp1784
g14
I00
sg32
I01
sg95
I00
sg15
I00
sbsS'constTermEE'
p1785
g0
(g252
g2
Ntp1786
Rp1787
(dp1788
g14
I00
sg32
I01
sg95
I5
sg15
I00
sbsS'slopeStartEE'
p1789
g0
(g252
g2
Ntp1790
Rp1791
(dp1792
g14
I00
sg32
I01
sg95
F0.0
sg15
I00
sbsS'constTermEB'
p1793
g0
(g252
g2
Ntp1794
Rp1795
(dp1796
g14
I00
sg32
I01
sg95
F1.0
sg15
I00
sbsS'slopeStartEB'
p1797
g0
(g252
g2
Ntp1798
Rp1799
(dp1800
g14
I00
sg32
I01
sg95
F0.0
sg15
I00
sbsg11
(lp1801
g236
ag241
ag246
ag1785
ag1793
aS'slopeTermEB'
p1802
ag1789
aS'slopeTermEE'
p1803
ag1797
asg1802
g0
(g252
g2
Ntp1804
Rp1805
(dp1806
g14
I00
sg32
I01
sg95
F0.05
sg15
I00
sbsg1803
g0
(g252
g2
Ntp1807
Rp1808
(dp1809
g14
I00
sg32
I01
sg95
F0.05
sg15
I00
sbsbag0
(g75
g2
Ntp1810
Rp1811
(dp1812
g14
I00
sg32
I01
sg15
I00
sg236
g0
(g91
g2
Ntp1813
Rp1814
(dp1815
g14
I00
sg32
I01
sg95
S'GsfEleTrkPtIsoCut'
p1816
sg15
I00
sbsg241
g0
(g242
g2
Ntp1817
Rp1818
(dp1819
g14
I00
sg32
I01
sg95
I00
sg15
I00
sbsg246
g0
(g242
g2
Ntp1820
Rp1821
(dp1822
g14
I00
sg32
I01
sg95
I00
sg15
I00
sbsg1785
g0
(g252
g2
Ntp1823
Rp1824
(dp1825
g14
I00
sg32
I01
sg95
F5.0
sg15
I00
sbsg1789
g0
(g252
g2
Ntp1826
Rp1827
(dp1828
g14
I00
sg32
I01
sg95
F0.0
sg15
I00
sbsg1793
g0
(g252
g2
Ntp1829
Rp1830
(dp1831
g14
I00
sg32
I01
sg95
F5.0
sg15
I00
sbsg1797
g0
(g252
g2
Ntp1832
Rp1833
(dp1834
g14
I00
sg32
I01
sg95
F0.0
sg15
I00
sbsg11
(lp1835
g236
ag241
ag246
ag1785
ag1793
ag1802
ag1789
ag1803
ag1797
asg1802
g0
(g252
g2
Ntp1836
Rp1837
(dp1838
g14
I00
sg32
I01
sg95
F0.0
sg15
I00
sbsg1803
g0
(g252
g2
Ntp1839
Rp1840
(dp1841
g14
I00
sg32
I01
sg95
F0.0
sg15
I00
sbsbag0
(g75
g2
Ntp1842
Rp1843
(dp1844
g14
I00
sg32
I01
sS'rhoConstant'
p1845
g0
(g252
g2
Ntp1846
Rp1847
(dp1848
g14
I00
sg32
I01
sg95
F0.28
sg15
I00
sbsg15
I00
sg236
g0
(g91
g2
Ntp1849
Rp1850
(dp1851
g14
I00
sg32
I01
sg95
S'GsfEleEmHadD1IsoRhoCut'
p1852
sg15
I00
sbsg241
g0
(g242
g2
Ntp1853
Rp1854
(dp1855
g14
I00
sg32
I01
sg95
I01
sg15
I00
sbsg1797
g0
(g252
g2
Ntp1856
Rp1857
(dp1858
g14
I00
sg32
I01
sg95
F0.0
sg15
I00
sbsg246
g0
(g242
g2
Ntp1859
Rp1860
(dp1861
g14
I00
sg32
I01
sg95
I00
sg15
I00
sbsg1785
g0
(g252
g2
Ntp1862
Rp1863
(dp1864
g14
I00
sg32
I01
sg95
F2.5
sg15
I00
sbsg1789
g0
(g252
g2
Ntp1865
Rp1866
(dp1867
g14
I00
sg32
I01
sg95
F50.0
sg15
I00
sbsg1793
g0
(g252
g2
Ntp1868
Rp1869
(dp1870
g14
I00
sg32
I01
sg95
F2.0
sg15
I00
sbsg522
g0
(g58
g2
Ntp1871
Rp1872
(dp1873
g14
I00
sg32
I01
sg15
I00
sg62
g526
sg64
g67
sg66
g67
sbsg11
(lp1874
g1845
ag236
ag241
ag246
ag1785
ag1793
ag522
ag1802
ag1789
ag1803
ag1797
asg1802
g0
(g252
g2
Ntp1875
Rp1876
(dp1877
g14
I00
sg32
I01
sg95
F0.03
sg15
I00
sbsg1803
g0
(g252
g2
Ntp1878
Rp1879
(dp1880
g14
I00
sg32
I01
sg95
F0.03
sg15
I00
sbsbag0
(g75
g2
Ntp1881
Rp1882
(dp1883
g14
I00
sg32
I01
sg15
I00
sg236
g0
(g91
g2
Ntp1884
Rp1885
(dp1886
g14
I00
sg32
I01
sg95
g408
sg15
I00
sbsg241
g0
(g242
g2
Ntp1887
Rp1888
(dp1889
g14
I00
sg32
I01
sg95
I01
sg15
I00
sbsg319
g0
(g252
g2
Ntp1890
Rp1891
(dp1892
g14
I00
sg32
I01
sg95
F1.479
sg15
I00
sbsg415
g0
(g252
g2
Ntp1893
Rp1894
(dp1895
g14
I00
sg32
I01
sg95
F0.02
sg15
I00
sbsg419
g0
(g58
g2
Ntp1896
Rp1897
(dp1898
g14
I00
sg32
I01
sg15
I00
sg62
g423
sg64
g67
sg66
g67
sbsg11
(lp1899
g236
ag241
ag319
ag415
ag419
ag425
ag246
ag426
asg426
g0
(g58
g2
Ntp1900
Rp1901
(dp1902
g14
I00
sg32
I01
sg15
I00
sg62
g430
sg64
g67
sg66
g67
sbsg246
g0
(g242
g2
Ntp1903
Rp1904
(dp1905
g14
I00
sg32
I01
sg95
I00
sg15
I00
sbsg425
g0
(g252
g2
Ntp1906
Rp1907
(dp1908
g14
I00
sg32
I01
sg95
F0.05
sg15
I00
sbsbag0
(g75
g2
Ntp1909
Rp1910
(dp1911
g14
I00
sg32
I01
sg15
I00
sg236
g0
(g91
g2
Ntp1912
Rp1913
(dp1914
g14
I00
sg32
I01
sg95
g579
sg15
I00
sbsg319
g0
(g252
g2
Ntp1915
Rp1916
(dp1917
g14
I00
sg32
I01
sg95
F1.479
sg15
I00
sbsg241
g0
(g242
g2
Ntp1918
Rp1919
(dp1920
g14
I00
sg32
I01
sg95
I00
sg15
I00
sbsg11
(lp1921
g236
ag319
ag241
ag587
ag588
ag246
asg587
g0
(g589
g2
Ntp1922
Rp1923
(dp1924
g14
I00
sg32
I01
sg95
I1
sg15
I00
sbsg588
g0
(g589
g2
Ntp1925
Rp1926
(dp1927
g14
I00
sg32
I01
sg95
I1
sg15
I00
sbsg246
g0
(g242
g2
Ntp1928
Rp1929
(dp1930
g14
I00
sg32
I01
sg95
I00
sg15
I00
sbsbag0
(g75
g2
Ntp1931
Rp1932
(dp1933
g14
I00
sg32
I01
sg15
I00
sg236
g0
(g91
g2
Ntp1934
Rp1935
(dp1936
g14
I00
sg32
I01
sg95
S'GsfEleEcalDrivenCut'
p1937
sg15
I00
sbsg319
g0
(g252
g2
Ntp1938
Rp1939
(dp1940
g14
I00
sg32
I01
sg95
F1.479
sg15
I00
sbsg241
g0
(g242
g2
Ntp1941
Rp1942
(dp1943
g14
I00
sg32
I01
sg95
I00
sg15
I00
sbsS'ecalDrivenEB'
p1944
g0
(cFWCore.ParameterSet.Types
int32
p1945
g2
Ntp1946
Rp1947
(dp1948
g14
I00
sg32
I01
sg95
I1
sg15
I00
sbsS'ecalDrivenEE'
p1949
g0
(g1945
g2
Ntp1950
Rp1951
(dp1952
g14
I00
sg32
I01
sg95
I1
sg15
I00
sbsg11
(lp1953
g236
ag319
ag241
ag1944
ag1949
ag246
asg246
g0
(g242
g2
Ntp1954
Rp1955
(dp1956
g14
I00
sg32
I01
sg95
I00
sg15
I00
sbsbatp1957
Rp1958
(dp1959
g14
I00
sg32
I01
sg15
I00
sg33
I1
sbsg11
(lp1960
g226
ag231
asbsg15
I00
sg603
g0
(g91
g2
Ntp1961
Rp1962
(dp1963
g14
I00
sg32
I01
sg95
S'df10ac7e3a9c22f63fa7936573beaafb'
p1964
sg15
I00
sbsg608
g0
(g242
g2
Ntp1965
Rp1966
(dp1967
g14
I00
sg32
I00
sg95
I01
sg15
I00
sbsg11
(lp1968
g222
ag603
ag608
asbag0
(g75
g2
Ntp1969
Rp1970
(dp1971
g14
I00
sg32
I01
sg222
g0
(g75
g2
Ntp1972
Rp1973
(dp1974
g14
I00
sg32
I01
sg15
I01
sg226
g0
(g91
g2
Ntp1975
Rp1976
(dp1977
g14
I00
sg32
I01
sg95
S'mvaEleID-Spring15-25ns-nonTrig-V1-wp80'
p1978
sg15
I00
sbsg231
g0
(g73
g20
(lp1979
g0
(g75
g2
Ntp1980
Rp1981
(dp1982
g14
I00
sg32
I01
sS'mvaValueMapName'
p1983
g0
(g58
g2
Ntp1984
Rp1985
(dp1986
g14
I00
sg32
I01
sg15
I00
sg62
S'electronMVAValueMapProducer'
p1987
sg64
g67
sg66
S'ElectronMVAEstimatorRun2Spring15NonTrig25nsV1Values'
p1988
sbsS'mvaCategoriesMapName'
p1989
g0
(g58
g2
Ntp1990
Rp1991
(dp1992
g14
I00
sg32
I01
sg15
I00
sg62
S'electronMVAValueMapProducer'
p1993
sg64
g67
sg66
S'ElectronMVAEstimatorRun2Spring15NonTrig25nsV1Categories'
p1994
sbsg236
g0
(g91
g2
Ntp1995
Rp1996
(dp1997
g14
I00
sg32
I01
sg95
S'GsfEleMVACut'
p1998
sg15
I00
sbsg241
g0
(g242
g2
Ntp1999
Rp2000
(dp2001
g14
I00
sg32
I01
sg95
I01
sg15
I00
sbsS'mvaCuts'
p2002
g0
(cFWCore.ParameterSet.Types
vdouble
p2003
g20
(lp2004
F0.287435
aF0.221846
aF-0.303263
aF0.967083
aF0.929117
aF0.726311
atp2005
Rp2006
(dp2007
g14
I00
sg32
I01
sg15
I00
sbsg246
g0
(g242
g2
Ntp2008
Rp2009
(dp2010
g14
I00
sg32
I01
sg95
I00
sg15
I00
sbsg11
(lp2011
g1983
ag1989
ag236
ag241
ag2002
ag246
asg15
I00
sbatp2012
Rp2013
(dp2014
g14
I00
sg32
I01
sg15
I00
sg33
I1
sbsg11
(lp2015
g226
ag231
asg34
S'mvaEleID_Spring15_25ns_nonTrig_V1_wp80'
p2016
sbsg15
I00
sg603
g0
(g91
g2
Ntp2017
Rp2018
(dp2019
g14
I00
sg32
I01
sg95
S'113c47ceaea0fa687b8bd6d880eb4957'
p2020
sg15
I00
sbsg608
g0
(g242
g2
Ntp2021
Rp2022
(dp2023
g14
I00
sg32
I00
sg95
I01
sg15
I00
sbsg11
(lp2024
g222
ag603
ag608
asbag0
(g75
g2
Ntp2025
Rp2026
(dp2027
g14
I00
sg32
I01
sg222
g0
(g75
g2
Ntp2028
Rp2029
(dp2030
g14
I00
sg32
I01
sg15
I01
sg226
g0
(g91
g2
Ntp2031
Rp2032
(dp2033
g14
I00
sg32
I01
sg95
S'mvaEleID-Spring15-25ns-nonTrig-V1-wp90'
p2034
sg15
I00
sbsg231
g0
(g73
g20
(lp2035
g0
(g75
g2
Ntp2036
Rp2037
(dp2038
g14
I00
sg32
I01
sg1983
g0
(g58
g2
Ntp2039
Rp2040
(dp2041
g14
I00
sg32
I01
sg15
I00
sg62
S'electronMVAValueMapProducer'
p2042
sg64
g67
sg66
S'ElectronMVAEstimatorRun2Spring15NonTrig25nsV1Values'
p2043
sbsg1989
g0
(g58
g2
Ntp2044
Rp2045
(dp2046
g14
I00
sg32
I01
sg15
I00
sg62
S'electronMVAValueMapProducer'
p2047
sg64
g67
sg66
S'ElectronMVAEstimatorRun2Spring15NonTrig25nsV1Categories'
p2048
sbsg236
g0
(g91
g2
Ntp2049
Rp2050
(dp2051
g14
I00
sg32
I01
sg95
g1998
sg15
I00
sbsg241
g0
(g242
g2
Ntp2052
Rp2053
(dp2054
g14
I00
sg32
I01
sg95
I01
sg15
I00
sbsg2002
g0
(g2003
g20
(lp2055
F-0.083313
aF-0.235222
aF-0.67099
aF0.913286
aF0.805013
aF0.358969
atp2056
Rp2057
(dp2058
g14
I00
sg32
I01
sg15
I00
sbsg246
g0
(g242
g2
Ntp2059
Rp2060
(dp2061
g14
I00
sg32
I01
sg95
I00
sg15
I00
sbsg11
(lp2062
g1983
ag1989
ag236
ag241
ag2002
ag246
asg15
I00
sbatp2063
Rp2064
(dp2065
g14
I00
sg32
I01
sg15
I00
sg33
I1
sbsg11
(lp2066
g226
ag231
asg34
S'mvaEleID_Spring15_25ns_nonTrig_V1_wp90'
p2067
sbsg15
I00
sg603
g0
(g91
g2
Ntp2068
Rp2069
(dp2070
g14
I00
sg32
I01
sg95
S'ac4fdc160eefe9eae7338601c02ed4bb'
p2071
sg15
I00
sbsg608
g0
(g242
g2
Ntp2072
Rp2073
(dp2074
g14
I00
sg32
I00
sg95
I01
sg15
I00
sbsg11
(lp2075
g222
ag603
ag608
asbag0
(g75
g2
Ntp2076
Rp2077
(dp2078
g14
I00
sg32
I01
sg222
g0
(g75
g2
Ntp2079
Rp2080
(dp2081
g14
I00
sg32
I01
sg15
I01
sg226
g0
(g91
g2
Ntp2082
Rp2083
(dp2084
g14
I00
sg32
I01
sg95
S'mvaEleID-Spring15-25ns-nonTrig-V1-wpLoose'
p2085
sg15
I00
sbsg231
g0
(g73
g20
(lp2086
g0
(g75
g2
Ntp2087
Rp2088
(dp2089
g14
I00
sg32
I01
sg1983
g0
(g58
g2
Ntp2090
Rp2091
(dp2092
g14
I00
sg32
I01
sg15
I00
sg62
S'electronMVAValueMapProducer'
p2093
sg64
g67
sg66
S'ElectronMVAEstimatorRun2Spring15NonTrig25nsV1Values'
p2094
sbsg1989
g0
(g58
g2
Ntp2095
Rp2096
(dp2097
g14
I00
sg32
I01
sg15
I00
sg62
S'electronMVAValueMapProducer'
p2098
sg64
g67
sg66
S'ElectronMVAEstimatorRun2Spring15NonTrig25nsV1Categories'
p2099
sbsg236
g0
(g91
g2
Ntp2100
Rp2101
(dp2102
g14
I00
sg32
I01
sg95
g1998
sg15
I00
sbsg241
g0
(g242
g2
Ntp2103
Rp2104
(dp2105
g14
I00
sg32
I01
sg95
I01
sg15
I00
sbsg2002
g0
(g2003
g20
(lp2106
F-0.265
aF-0.556
aF-0.551
aF-0.072
aF-0.286
aF-0.267
atp2107
Rp2108
(dp2109
g14
I00
sg32
I01
sg15
I00
sbsg246
g0
(g242
g2
Ntp2110
Rp2111
(dp2112
g14
I00
sg32
I01
sg95
I00
sg15
I00
sbsg11
(lp2113
g1983
ag1989
ag236
ag241
ag2002
ag246
asg15
I00
sbatp2114
Rp2115
(dp2116
g14
I00
sg32
I01
sg15
I00
sg33
I1
sbsg11
(lp2117
g226
ag231
asg34
S'mvaEleID_Spring15_25ns_nonTrig_V1_wpLoose'
p2118
sbsg15
I00
sg603
g0
(g91
g2
Ntp2119
Rp2120
(dp2121
g14
I00
sg32
I01
sg95
S'99ff36834c4342110d84ea2350a1229c'
p2122
sg15
I00
sbsg608
g0
(g242
g2
Ntp2123
Rp2124
(dp2125
g14
I00
sg32
I00
sg95
I01
sg15
I00
sbsg11
(lp2126
g222
ag603
ag608
asbag0
(g75
g2
Ntp2127
Rp2128
(dp2129
g14
I00
sg32
I01
sg222
g0
(g75
g2
Ntp2130
Rp2131
(dp2132
g14
I00
sg32
I01
sg15
I01
sg226
g0
(g91
g2
Ntp2133
Rp2134
(dp2135
g14
I00
sg32
I01
sg95
S'mvaEleID-Spring15-25ns-Trig-V1-wp80'
p2136
sg15
I00
sbsg231
g0
(g73
g20
(lp2137
g0
(g75
g2
Ntp2138
Rp2139
(dp2140
g14
I00
sg32
I01
sg1983
g0
(g58
g2
Ntp2141
Rp2142
(dp2143
g14
I00
sg32
I01
sg15
I00
sg62
S'electronMVAValueMapProducer'
p2144
sg64
g67
sg66
S'ElectronMVAEstimatorRun2Spring15Trig25nsV1Values'
p2145
sbsg1989
g0
(g58
g2
Ntp2146
Rp2147
(dp2148
g14
I00
sg32
I01
sg15
I00
sg62
S'electronMVAValueMapProducer'
p2149
sg64
g67
sg66
S'ElectronMVAEstimatorRun2Spring15Trig25nsV1Categories'
p2150
sbsg236
g0
(g91
g2
Ntp2151
Rp2152
(dp2153
g14
I00
sg32
I01
sg95
g1998
sg15
I00
sbsg241
g0
(g242
g2
Ntp2154
Rp2155
(dp2156
g14
I00
sg32
I01
sg95
I01
sg15
I00
sbsg2002
g0
(g2003
g20
(lp2157
F0.988153
aF0.96791
aF0.841729
atp2158
Rp2159
(dp2160
g14
I00
sg32
I01
sg15
I00
sbsg246
g0
(g242
g2
Ntp2161
Rp2162
(dp2163
g14
I00
sg32
I01
sg95
I00
sg15
I00
sbsg11
(lp2164
g1983
ag1989
ag236
ag241
ag2002
ag246
asg15
I00
sbatp2165
Rp2166
(dp2167
g14
I00
sg32
I01
sg15
I00
sg33
I1
sbsg11
(lp2168
g226
ag231
asg34
S'mvaEleID_Spring15_25ns_Trig_V1_wp80'
p2169
sbsg15
I00
sg603
g0
(g91
g2
Ntp2170
Rp2171
(dp2172
g14
I00
sg32
I01
sg95
S'81046ab478185af337be1be9b30948ae'
p2173
sg15
I00
sbsg608
g0
(g242
g2
Ntp2174
Rp2175
(dp2176
g14
I00
sg32
I00
sg95
I01
sg15
I00
sbsg11
(lp2177
g222
ag603
ag608
asbag0
(g75
g2
Ntp2178
Rp2179
(dp2180
g14
I00
sg32
I01
sg222
g0
(g75
g2
Ntp2181
Rp2182
(dp2183
g14
I00
sg32
I01
sg15
I01
sg226
g0
(g91
g2
Ntp2184
Rp2185
(dp2186
g14
I00
sg32
I01
sg95
S'mvaEleID-Spring15-25ns-Trig-V1-wp90'
p2187
sg15
I00
sbsg231
g0
(g73
g20
(lp2188
g0
(g75
g2
Ntp2189
Rp2190
(dp2191
g14
I00
sg32
I01
sg1983
g0
(g58
g2
Ntp2192
Rp2193
(dp2194
g14
I00
sg32
I01
sg15
I00
sg62
S'electronMVAValueMapProducer'
p2195
sg64
g67
sg66
S'ElectronMVAEstimatorRun2Spring15Trig25nsV1Values'
p2196
sbsg1989
g0
(g58
g2
Ntp2197
Rp2198
(dp2199
g14
I00
sg32
I01
sg15
I00
sg62
S'electronMVAValueMapProducer'
p2200
sg64
g67
sg66
S'ElectronMVAEstimatorRun2Spring15Trig25nsV1Categories'
p2201
sbsg236
g0
(g91
g2
Ntp2202
Rp2203
(dp2204
g14
I00
sg32
I01
sg95
g1998
sg15
I00
sbsg241
g0
(g242
g2
Ntp2205
Rp2206
(dp2207
g14
I00
sg32
I01
sg95
I01
sg15
I00
sbsg2002
g0
(g2003
g20
(lp2208
F0.972153
aF0.922126
aF0.610764
atp2209
Rp2210
(dp2211
g14
I00
sg32
I01
sg15
I00
sbsg246
g0
(g242
g2
Ntp2212
Rp2213
(dp2214
g14
I00
sg32
I01
sg95
I00
sg15
I00
sbsg11
(lp2215
g1983
ag1989
ag236
ag241
ag2002
ag246
asg15
I00
sbatp2216
Rp2217
(dp2218
g14
I00
sg32
I01
sg15
I00
sg33
I1
sbsg11
(lp2219
g226
ag231
asg34
S'mvaEleID_Spring15_25ns_Trig_V1_wp90'
p2220
sbsg15
I00
sg603
g0
(g91
g2
Ntp2221
Rp2222
(dp2223
g14
I00
sg32
I01
sg95
S'bb430b638bf3a4d970627021b0da63ae'
p2224
sg15
I00
sbsg608
g0
(g242
g2
Ntp2225
Rp2226
(dp2227
g14
I00
sg32
I00
sg95
I01
sg15
I00
sbsg11
(lp2228
g222
ag603
ag608
asbatp2229
Rp2230
(dp2231
g14
I00
sg32
I01
sg15
I00
sg33
I1
sbsg34
S'egmGsfElectronIDs'
p2232
sg35
S'VersionedGsfElectronIdProducer'
p2233
sbag0
(g50
g2
Ntp2234
Rp2235
(dp2236
g11
(lp2237
g55
ag56
aS'esReducedRecHitCollectionMiniAOD'
p2238
aS'eeReducedRecHitCollection'
p2239
aS'ebReducedRecHitCollectionMiniAOD'
p2240
aS'eeReducedRecHitCollectionMiniAOD'
p2241
aS'useFull5x5'
p2242
aS'esReducedRecHitCollection'
p2243
aS'ebReducedRecHitCollection'
p2244
asg14
I00
sg56
g0
(g58
g2
Ntp2245
Rp2246
(dp2247
g14
I00
sg32
I01
sg15
I00
sg62
g63
sg64
g65
sg66
g67
sbsg15
I00
sg55
g0
(g58
g2
Ntp2248
Rp2249
(dp2250
g14
I00
sg32
I01
sg15
I00
sg62
g71
sg64
g67
sg66
g67
sbsg17
S'/cvmfs/cms.cern.ch/slc6_amd64_gcc530/cms/cmssw/CMSSW_8_0_12/python/RecoEgamma/ElectronIdentification/ElectronRegressionValueMapProducer_cfi.py'
p2251
sg2239
g0
(g58
g2
Ntp2252
Rp2253
(dp2254
g14
I00
sg32
I01
sg15
I00
sg62
S'reducedEcalRecHitsEE'
p2255
sg64
g67
sg66
g67
sbsg2243
g0
(g58
g2
Ntp2256
Rp2257
(dp2258
g14
I00
sg32
I01
sg15
I00
sg62
S'reducedEcalRecHitsES'
p2259
sg64
g67
sg66
g67
sbsg2240
g0
(g58
g2
Ntp2260
Rp2261
(dp2262
g14
I00
sg32
I01
sg15
I00
sg62
S'reducedEgamma'
p2263
sg64
g67
sg66
S'reducedEBRecHits'
p2264
sbsg2241
g0
(g58
g2
Ntp2265
Rp2266
(dp2267
g14
I00
sg32
I01
sg15
I00
sg62
S'reducedEgamma'
p2268
sg64
g67
sg66
S'reducedEERecHits'
p2269
sbsg16
I20
sg2242
g0
(g242
g2
Ntp2270
Rp2271
(dp2272
g14
I00
sg32
I01
sg95
I00
sg15
I00
sbsg2238
g0
(g58
g2
Ntp2273
Rp2274
(dp2275
g14
I00
sg32
I01
sg15
I00
sg62
S'reducedEgamma'
p2276
sg64
g67
sg66
S'reducedESRecHits'
p2277
sbsg34
S'electronRegressionValueMapProducer'
p2278
sg35
S'ElectronRegressionValueMapProducer'
p2279
sg2244
g0
(g58
g2
Ntp2280
Rp2281
(dp2282
g14
I00
sg32
I01
sg15
I00
sg62
S'reducedEcalRecHitsEB'
p2283
sg64
g67
sg66
g67
sbsbasbsg15
I00
sg34
g38
sbssS'_Process__source'
p2284
g0
(cFWCore.ParameterSet.Modules
Source
p2285
g2
Ntp2286
Rp2287
(dp2288
g11
(lp2289
S'skipEvents'
p2290
aS'fileNames'
p2291
asg14
I00
sg15
I00
sg16
I175
sg17
g18
sg2290
g0
(g589
g2
Ntp2292
Rp2293
(dp2294
g14
I00
sg32
I00
sg95
I0
sg15
I00
sbsg2291
g0
(g19
g20
(lp2295
S'file:pickevents_2233019.root'
p2296
aS'file:pickevents_2245465.root'
p2297
aS'file:pickevents_2247570.root'
p2298
aS'file:pickevents_2252997.root'
p2299
aS'file:pickevents_2656212.root'
p2300
atp2301
Rp2302
(dp2303
g14
I00
sg32
I00
sg15
I00
sg33
I1
sbsg35
S'PoolSource'
p2304
sbsg206
g52
sS'TFileService'
p2305
g0
(cFWCore.ParameterSet.Modules
Service
p2306
g2
Ntp2307
Rp2308
(dp2309
g11
(lp2310
S'fileName'
p2311
asg14
I00
sg15
I00
sg16
I10
sg17
g18
sg2311
g0
(g91
g2
Ntp2312
Rp2313
(dp2314
g14
I00
sg32
I01
sg95
S'OutTree.root'
p2315
sg15
I00
sbsg35
g2305
sbsS'hcalDDDSimConstants'
p2316
g0
(g7
g2
Ntp2317
Rp2318
(dp2319
g11
(lp2320
S'appendToDataLabel'
p2321
asg14
I00
sg2321
g0
(g91
g2
Ntp2322
Rp2323
(dp2324
g14
I00
sg32
I01
sg95
g67
sg15
I00
sbsg15
I00
sg16
I40
sg17
g18
sg34
g2316
sg35
S'HcalDDDSimConstantsESModule'
p2325
sbsS'source'
p2326
g2287
sS'RandomNumberGeneratorService'
p2327
g0
(g2306
g2
Ntp2328
Rp2329
(dp2330
g14
I00
sS'horeco'
p2331
g0
(g75
g2
Ntp2332
Rp2333
(dp2334
g14
I00
sg32
I01
sg15
I00
sS'initialSeed'
p2335
g0
(g589
g2
Ntp2336
Rp2337
(dp2338
g14
I00
sg32
I00
sg95
I541321
sg15
I00
sbsg11
(lp2339
g2335
aS'engineName'
p2340
asg2340
g0
(g91
g2
Ntp2341
Rp2342
(dp2343
g14
I00
sg32
I00
sg95
S'TRandom3'
p2344
sg15
I00
sbsbsg16
I10
sS'paramMuons'
p2345
g0
(g75
g2
Ntp2346
Rp2347
(dp2348
g14
I00
sg32
I01
sg15
I00
sg2335
g0
(g589
g2
Ntp2349
Rp2350
(dp2351
g14
I00
sg32
I00
sg95
I54525
sg15
I00
sbsg11
(lp2352
g2335
ag2340
asg2340
g0
(g91
g2
Ntp2353
Rp2354
(dp2355
g14
I00
sg32
I00
sg95
g2344
sg15
I00
sbsbsS'saveFileName'
p2356
g0
(g91
g2
Ntp2357
Rp2358
(dp2359
g14
I00
sg32
I00
sg95
g67
sg15
I00
sbsS'hbhereco'
p2360
g0
(g75
g2
Ntp2361
Rp2362
(dp2363
g14
I00
sg32
I01
sg15
I00
sg2335
g0
(g589
g2
Ntp2364
Rp2365
(dp2366
g14
I00
sg32
I00
sg95
I541321
sg15
I00
sbsg11
(lp2367
g2335
ag2340
asg2340
g0
(g91
g2
Ntp2368
Rp2369
(dp2370
g14
I00
sg32
I00
sg95
g2344
sg15
I00
sbsbsS'simSiStripDigiSimLink'
p2371
g0
(g75
g2
Ntp2372
Rp2373
(dp2374
g14
I00
sg32
I01
sg15
I00
sg2335
g0
(g589
g2
Ntp2375
Rp2376
(dp2377
g14
I00
sg32
I00
sg95
I1234567
sg15
I00
sbsg11
(lp2378
g2335
ag2340
asg2340
g0
(g91
g2
Ntp2379
Rp2380
(dp2381
g14
I00
sg32
I00
sg95
S'HepJamesRandom'
p2382
sg15
I00
sbsbsS'externalLHEProducer'
p2383
g0
(g75
g2
Ntp2384
Rp2385
(dp2386
g14
I00
sg32
I01
sg15
I00
sg2335
g0
(g589
g2
Ntp2387
Rp2388
(dp2389
g14
I00
sg32
I00
sg95
I234567
sg15
I00
sbsg11
(lp2390
g2335
ag2340
asg2340
g0
(g91
g2
Ntp2391
Rp2392
(dp2393
g14
I00
sg32
I00
sg95
g2382
sg15
I00
sbsbsS'famosPileUp'
p2394
g0
(g75
g2
Ntp2395
Rp2396
(dp2397
g14
I00
sg32
I01
sg15
I00
sg2335
g0
(g589
g2
Ntp2398
Rp2399
(dp2400
g14
I00
sg32
I00
sg95
I918273
sg15
I00
sbsg11
(lp2401
g2335
ag2340
asg2340
g0
(g91
g2
Ntp2402
Rp2403
(dp2404
g14
I00
sg32
I00
sg95
g2344
sg15
I00
sbsbsS'simMuonDTDigis'
p2405
g0
(g75
g2
Ntp2406
Rp2407
(dp2408
g14
I00
sg32
I01
sg15
I00
sg2335
g0
(g589
g2
Ntp2409
Rp2410
(dp2411
g14
I00
sg32
I00
sg95
I1234567
sg15
I00
sbsg11
(lp2412
g2335
ag2340
asg2340
g0
(g91
g2
Ntp2413
Rp2414
(dp2415
g14
I00
sg32
I00
sg95
g2382
sg15
I00
sbsbsg35
g2327
sS'siTrackerGaussianSmearingRecHits'
p2416
g0
(g75
g2
Ntp2417
Rp2418
(dp2419
g14
I00
sg32
I01
sg15
I00
sg2335
g0
(g589
g2
Ntp2420
Rp2421
(dp2422
g14
I00
sg32
I00
sg95
I24680
sg15
I00
sbsg11
(lp2423
g2335
ag2340
asg2340
g0
(g91
g2
Ntp2424
Rp2425
(dp2426
g14
I00
sg32
I00
sg95
g2344
sg15
I00
sbsbsg11
(lp2427
g2331
ag2345
ag2356
ag2360
ag2371
ag2383
ag2394
ag2405
ag2416
aS'ecalPreshowerRecHit'
p2428
aS'generator'
p2429
aS'simMuonRPCDigis'
p2430
aS'hiSignal'
p2431
aS'mixSimCaloHits'
p2432
aS'mix'
p2433
aS'VtxSmeared'
p2434
aS'LHCTransport'
p2435
aS'ecalRecHit'
p2436
aS'hfreco'
p2437
aS'mixRecoTracks'
p2438
aS'hiSignalG4SimHits'
p2439
aS'famosSimHits'
p2440
aS'MuonSimHits'
p2441
aS'g4SimHits'
p2442
aS'hiSignalLHCTransport'
p2443
aS'mixGenPU'
p2444
aS'l1ParamMuons'
p2445
aS'simBeamSpotFilter'
p2446
aS'simMuonCSCDigis'
p2447
aS'mixData'
p2448
asg2428
g0
(g75
g2
Ntp2449
Rp2450
(dp2451
g14
I00
sg32
I01
sg15
I00
sg2335
g0
(g589
g2
Ntp2452
Rp2453
(dp2454
g14
I00
sg32
I00
sg95
I6541321
sg15
I00
sbsg11
(lp2455
g2335
ag2340
asg2340
g0
(g91
g2
Ntp2456
Rp2457
(dp2458
g14
I00
sg32
I00
sg95
g2344
sg15
I00
sbsbsg2429
g0
(g75
g2
Ntp2459
Rp2460
(dp2461
g14
I00
sg32
I01
sg15
I00
sg2335
g0
(g589
g2
Ntp2462
Rp2463
(dp2464
g14
I00
sg32
I00
sg95
I123456789
sg15
I00
sbsg11
(lp2465
g2335
ag2340
asg2340
g0
(g91
g2
Ntp2466
Rp2467
(dp2468
g14
I00
sg32
I00
sg95
g2382
sg15
I00
sbsbsg2430
g0
(g75
g2
Ntp2469
Rp2470
(dp2471
g14
I00
sg32
I01
sg15
I00
sg2335
g0
(g589
g2
Ntp2472
Rp2473
(dp2474
g14
I00
sg32
I00
sg95
I1234567
sg15
I00
sbsg11
(lp2475
g2335
ag2340
asg2340
g0
(g91
g2
Ntp2476
Rp2477
(dp2478
g14
I00
sg32
I00
sg95
g2382
sg15
I00
sbsbsg2431
g0
(g75
g2
Ntp2479
Rp2480
(dp2481
g14
I00
sg32
I01
sg15
I00
sg2335
g0
(g589
g2
Ntp2482
Rp2483
(dp2484
g14
I00
sg32
I00
sg95
I123456789
sg15
I00
sbsg11
(lp2485
g2335
ag2340
asg2340
g0
(g91
g2
Ntp2486
Rp2487
(dp2488
g14
I00
sg32
I00
sg95
g2382
sg15
I00
sbsbsg2432
g0
(g75
g2
Ntp2489
Rp2490
(dp2491
g14
I00
sg32
I01
sg15
I00
sg2335
g0
(g589
g2
Ntp2492
Rp2493
(dp2494
g14
I00
sg32
I00
sg95
I918273
sg15
I00
sbsg11
(lp2495
g2335
ag2340
asg2340
g0
(g91
g2
Ntp2496
Rp2497
(dp2498
g14
I00
sg32
I00
sg95
g2344
sg15
I00
sbsbsg2433
g0
(g75
g2
Ntp2499
Rp2500
(dp2501
g14
I00
sg32
I01
sg15
I00
sg2335
g0
(g589
g2
Ntp2502
Rp2503
(dp2504
g14
I00
sg32
I00
sg95
I12345
sg15
I00
sbsg11
(lp2505
g2335
ag2340
asg2340
g0
(g91
g2
Ntp2506
Rp2507
(dp2508
g14
I00
sg32
I00
sg95
g2382
sg15
I00
sbsbsg2434
g0
(g75
g2
Ntp2509
Rp2510
(dp2511
g14
I00
sg32
I01
sg15
I00
sg2335
g0
(g589
g2
Ntp2512
Rp2513
(dp2514
g14
I00
sg32
I00
sg95
I98765432
sg15
I00
sbsg11
(lp2515
g2335
ag2340
asg2340
g0
(g91
g2
Ntp2516
Rp2517
(dp2518
g14
I00
sg32
I00
sg95
g2382
sg15
I00
sbsbsg2435
g0
(g75
g2
Ntp2519
Rp2520
(dp2521
g14
I00
sg32
I01
sg15
I00
sg2335
g0
(g589
g2
Ntp2522
Rp2523
(dp2524
g14
I00
sg32
I00
sg95
I87654321
sg15
I00
sbsg11
(lp2525
g2335
ag2340
asg2340
g0
(g91
g2
Ntp2526
Rp2527
(dp2528
g14
I00
sg32
I00
sg95
g2344
sg15
I00
sbsbsg2436
g0
(g75
g2
Ntp2529
Rp2530
(dp2531
g14
I00
sg32
I01
sg15
I00
sg2335
g0
(g589
g2
Ntp2532
Rp2533
(dp2534
g14
I00
sg32
I00
sg95
I654321
sg15
I00
sbsg11
(lp2535
g2335
ag2340
asg2340
g0
(g91
g2
Ntp2536
Rp2537
(dp2538
g14
I00
sg32
I00
sg95
g2344
sg15
I00
sbsbsg2448
g0
(g75
g2
Ntp2539
Rp2540
(dp2541
g14
I00
sg32
I01
sg15
I00
sg2335
g0
(g589
g2
Ntp2542
Rp2543
(dp2544
g14
I00
sg32
I00
sg95
I12345
sg15
I00
sbsg11
(lp2545
g2335
ag2340
asg2340
g0
(g91
g2
Ntp2546
Rp2547
(dp2548
g14
I00
sg32
I00
sg95
g2382
sg15
I00
sbsbsg2438
g0
(g75
g2
Ntp2549
Rp2550
(dp2551
g14
I00
sg32
I01
sg15
I00
sg2335
g0
(g589
g2
Ntp2552
Rp2553
(dp2554
g14
I00
sg32
I00
sg95
I918273
sg15
I00
sbsg11
(lp2555
g2335
ag2340
asg2340
g0
(g91
g2
Ntp2556
Rp2557
(dp2558
g14
I00
sg32
I00
sg95
g2344
sg15
I00
sbsbsg2439
g0
(g75
g2
Ntp2559
Rp2560
(dp2561
g14
I00
sg32
I01
sg15
I00
sg2335
g0
(g589
g2
Ntp2562
Rp2563
(dp2564
g14
I00
sg32
I00
sg95
I11
sg15
I00
sbsg11
(lp2565
g2335
ag2340
asg2340
g0
(g91
g2
Ntp2566
Rp2567
(dp2568
g14
I00
sg32
I00
sg95
g2382
sg15
I00
sbsbsg2440
g0
(g75
g2
Ntp2569
Rp2570
(dp2571
g14
I00
sg32
I01
sg15
I00
sg2335
g0
(g589
g2
Ntp2572
Rp2573
(dp2574
g14
I00
sg32
I00
sg95
I13579
sg15
I00
sbsg11
(lp2575
g2335
ag2340
asg2340
g0
(g91
g2
Ntp2576
Rp2577
(dp2578
g14
I00
sg32
I00
sg95
g2344
sg15
I00
sbsbsg2441
g0
(g75
g2
Ntp2579
Rp2580
(dp2581
g14
I00
sg32
I01
sg15
I00
sg2335
g0
(g589
g2
Ntp2582
Rp2583
(dp2584
g14
I00
sg32
I00
sg95
I987346
sg15
I00
sbsg11
(lp2585
g2335
ag2340
asg2340
g0
(g91
g2
Ntp2586
Rp2587
(dp2588
g14
I00
sg32
I00
sg95
g2344
sg15
I00
sbsbsg2442
g0
(g75
g2
Ntp2589
Rp2590
(dp2591
g14
I00
sg32
I01
sg15
I00
sg2335
g0
(g589
g2
Ntp2592
Rp2593
(dp2594
g14
I00
sg32
I00
sg95
I11
sg15
I00
sbsg11
(lp2595
g2335
ag2340
asg2340
g0
(g91
g2
Ntp2596
Rp2597
(dp2598
g14
I00
sg32
I00
sg95
g2382
sg15
I00
sbsbsg2443
g0
(g75
g2
Ntp2599
Rp2600
(dp2601
g14
I00
sg32
I01
sg15
I00
sg2335
g0
(g589
g2
Ntp2602
Rp2603
(dp2604
g14
I00
sg32
I00
sg95
I88776655
sg15
I00
sbsg11
(lp2605
g2335
ag2340
asg2340
g0
(g91
g2
Ntp2606
Rp2607
(dp2608
g14
I00
sg32
I00
sg95
g2344
sg15
I00
sbsbsg2444
g0
(g75
g2
Ntp2609
Rp2610
(dp2611
g14
I00
sg32
I01
sg15
I00
sg2335
g0
(g589
g2
Ntp2612
Rp2613
(dp2614
g14
I00
sg32
I00
sg95
I918273
sg15
I00
sbsg11
(lp2615
g2335
ag2340
asg2340
g0
(g91
g2
Ntp2616
Rp2617
(dp2618
g14
I00
sg32
I00
sg95
g2344
sg15
I00
sbsbsg2445
g0
(g75
g2
Ntp2619
Rp2620
(dp2621
g14
I00
sg32
I01
sg15
I00
sg2335
g0
(g589
g2
Ntp2622
Rp2623
(dp2624
g14
I00
sg32
I00
sg95
I6453209
sg15
I00
sbsg11
(lp2625
g2335
ag2340
asg2340
g0
(g91
g2
Ntp2626
Rp2627
(dp2628
g14
I00
sg32
I00
sg95
g2344
sg15
I00
sbsbsg15
I00
sg2446
g0
(g75
g2
Ntp2629
Rp2630
(dp2631
g14
I00
sg32
I01
sg15
I00
sg2335
g0
(g589
g2
Ntp2632
Rp2633
(dp2634
g14
I00
sg32
I00
sg95
I87654321
sg15
I00
sbsg11
(lp2635
g2335
ag2340
asg2340
g0
(g91
g2
Ntp2636
Rp2637
(dp2638
g14
I00
sg32
I00
sg95
g2382
sg15
I00
sbsbsg2447
g0
(g75
g2
Ntp2639
Rp2640
(dp2641
g14
I00
sg32
I01
sg15
I00
sg2335
g0
(g589
g2
Ntp2642
Rp2643
(dp2644
g14
I00
sg32
I00
sg95
I11223344
sg15
I00
sbsg11
(lp2645
g2335
ag2340
asg2340
g0
(g91
g2
Ntp2646
Rp2647
(dp2648
g14
I00
sg32
I00
sg95
g2382
sg15
I00
sbsbsg2437
g0
(g75
g2
Ntp2649
Rp2650
(dp2651
g14
I00
sg32
I01
sg15
I00
sg2335
g0
(g589
g2
Ntp2652
Rp2653
(dp2654
g14
I00
sg32
I00
sg95
I541321
sg15
I00
sbsg11
(lp2655
g2335
ag2340
asg2340
g0
(g91
g2
Ntp2656
Rp2657
(dp2658
g14
I00
sg32
I00
sg95
g2344
sg15
I00
sbsbsg17
g18
sbsg2067
g2029
sS'CaloTowerGeometryFromDBEP'
p2659
g0
(g7
g2
Ntp2660
Rp2661
(dp2662
g11
(lp2663
S'applyAlignment'
p2664
aS'hcalTopologyConstants'
p2665
asg14
I00
sg15
I01
sg16
I40
sg17
g18
sg2665
g0
(g75
g2
Ntp2666
Rp2667
(dp2668
g14
I00
sg32
I01
sg15
I00
sS'maxDepthHE'
p2669
g0
(g1945
g2
Ntp2670
Rp2671
(dp2672
g14
I00
sg32
I01
sg95
I3
sg15
I00
sbsS'maxDepthHB'
p2673
g0
(g1945
g2
Ntp2674
Rp2675
(dp2676
g14
I00
sg32
I01
sg95
I2
sg15
I00
sbsg11
(lp2677
g2669
ag2673
aS'mode'
p2678
asg2678
g0
(g91
g2
Ntp2679
Rp2680
(dp2681
g14
I00
sg32
I01
sg95
S'HcalTopologyMode::LHC'
p2682
sg15
I00
sbsbsg34
g2659
sg2664
g0
(g242
g2
Ntp2683
Rp2684
(dp2685
g14
I00
sg32
I01
sg95
I00
sg15
I00
sbsg35
g2659
sbsS'matchGenCHadron'
p2686
g0
(g50
g2
Ntp2687
Rp2688
(dp2689
g11
(lp2690
S'jetFlavourInfos'
p2691
aS'flavour'
p2692
aS'noBBbarResonances'
p2693
aS'genParticles'
p2694
aS'onlyJetClusteredHadrons'
p2695
asg14
I00
sg2694
g0
(g58
g2
Ntp2696
Rp2697
(dp2698
g14
I00
sg32
I01
sg15
I01
sg62
S'prunedGenParticles'
p2699
sg66
g67
sg64
g67
sbsg2692
g0
(g1945
g2
Ntp2700
Rp2701
(dp2702
g14
I00
sg32
I01
sg95
I4
sg15
I01
sbsg15
I00
sg16
I154
sg17
S'/afs/cern.ch/work/f/fromeo/CMSSW_8_0_12_FW/src/BSMFramework/BSM3G_TNT_Maker/python/miniAOD_MC.py'
p2703
sg2693
g0
(g242
g2
Ntp2704
Rp2705
(dp2706
g14
I00
sg32
I01
sg95
I00
sg15
I00
sbsg34
g2686
sg2691
g0
(g58
g2
Ntp2707
Rp2708
(dp2709
g14
I00
sg32
I01
sg15
I01
sg62
S'genJetFlavourInfos'
p2710
sg66
g67
sg64
g67
sbsg2695
g0
(g242
g2
Ntp2711
Rp2712
(dp2713
g14
I00
sg32
I01
sg95
I01
sg15
I00
sbsg35
S'GenHFHadronMatcher'
p2714
sbsS'_Process__InExtendCall'
p2715
I00
sS'_Process__producers'
p2716
(dp2717
g2710
g0
(g50
g2
Ntp2718
Rp2719
(dp2720
g11
(lp2721
S'ghostRescaling'
p2722
aS'partons'
p2723
aS'jetAlgorithm'
p2724
aS'bHadrons'
p2725
aS'rParam'
p2726
aS'leptons'
p2727
aS'jets'
p2728
aS'hadronFlavourHasPriority'
p2729
aS'cHadrons'
p2730
asg14
I00
sg2722
g0
(g252
g2
Ntp2731
Rp2732
(dp2733
g14
I00
sg32
I01
sg95
F1e-18
sg15
I00
sbsg2723
g0
(g58
g2
Ntp2734
Rp2735
(dp2736
g14
I00
sg32
I01
sg15
I00
sg62
S'selectedHadronsAndPartons'
p2737
sg66
S'algorithmicPartons'
p2738
sg64
g67
sbsg15
I00
sg16
I144
sg2724
g0
(g91
g2
Ntp2739
Rp2740
(dp2741
g14
I00
sg32
I01
sg95
S'AntiKt'
p2742
sg15
I00
sbsg2725
g0
(g58
g2
Ntp2743
Rp2744
(dp2745
g14
I00
sg32
I01
sg15
I00
sg62
g2737
sg66
g2725
sg64
g67
sbsg2726
g0
(g252
g2
Ntp2746
Rp2747
(dp2748
g14
I00
sg32
I01
sg95
F0.4
sg15
I00
sbsg34
g2710
sg2730
g0
(g58
g2
Ntp2749
Rp2750
(dp2751
g14
I00
sg32
I01
sg15
I00
sg62
g2737
sg66
g2730
sg64
g67
sbsg2727
g0
(g58
g2
Ntp2752
Rp2753
(dp2754
g14
I00
sg32
I01
sg15
I00
sg62
g2737
sg66
g2727
sg64
g67
sbsg17
g2703
sg2728
g0
(g58
g2
Ntp2755
Rp2756
(dp2757
g14
I00
sg32
I01
sg15
I01
sg62
S'slimmedGenJets'
p2758
sg66
g67
sg64
g67
sbsg2729
g0
(g242
g2
Ntp2759
Rp2760
(dp2761
g14
I00
sg32
I01
sg95
I00
sg15
I00
sbsg35
S'JetFlavourClustering'
p2762
sbsS'matchGenBHadron'
p2763
g0
(g50
g2
Ntp2764
Rp2765
(dp2766
g11
(lp2767
g2691
ag2692
ag2693
ag2694
ag2695
asg14
I00
sg2694
g0
(g58
g2
Ntp2768
Rp2769
(dp2770
g14
I00
sg32
I01
sg15
I01
sg62
g2699
sg66
g67
sg64
g67
sbsg2692
g0
(g1945
g2
Ntp2771
Rp2772
(dp2773
g14
I00
sg32
I01
sg95
I5
sg15
I00
sbsg15
I00
sg16
I149
sg17
g2703
sg2693
g0
(g242
g2
Ntp2774
Rp2775
(dp2776
g14
I00
sg32
I01
sg95
I00
sg15
I00
sbsg34
g2763
sg2691
g0
(g58
g2
Ntp2777
Rp2778
(dp2779
g14
I00
sg32
I01
sg15
I01
sg62
g2710
sg66
g67
sg64
g67
sbsg2695
g0
(g242
g2
Ntp2780
Rp2781
(dp2782
g14
I00
sg32
I01
sg95
I01
sg15
I00
sbsg35
g2714
sbsg2232
g209
sS'randomEngineStateProducer'
p2783
g0
(g50
g2
Ntp2784
Rp2785
(dp2786
g11
(lp2787
sg14
I00
sg15
I00
sg16
I170
sg17
S'/cvmfs/cms.cern.ch/slc6_amd64_gcc530/cms/cmssw/CMSSW_8_0_12/python/IOMC/RandomEngine/IOMC_cff.py'
p2788
sg34
g2783
sg35
S'RandomEngineStateProducer'
p2789
sbsg206
g52
sg2278
g2235
sg2686
g2688
sg2737
g0
(g50
g2
Ntp2790
Rp2791
(dp2792
g11
(lp2793
S'particles'
p2794
ag55
aS'partonMode'
p2795
asg14
I00
sg15
I00
sg55
g0
(g58
g2
Ntp2796
Rp2797
(dp2798
g14
I00
sg32
I01
sg15
I00
sg62
g2429
sg66
g67
sg64
g67
sbsg17
g2703
sg2795
g0
(g91
g2
Ntp2799
Rp2800
(dp2801
g14
I00
sg32
I01
sg95
S'Auto'
p2802
sg15
I00
sbsg2794
g0
(g58
g2
Ntp2803
Rp2804
(dp2805
g14
I00
sg32
I01
sg15
I01
sg62
g2699
sg66
g67
sg64
g67
sbsg16
I138
sg34
g2737
sg35
S'HadronAndPartonSelector'
p2806
sbssS'siPixelQualityESProducer'
p2807
g0
(g7
g2
Ntp2808
Rp2809
(dp2810
g11
(lp2811
S'ListOfRecordToMerge'
p2812
asg14
I00
sg15
I01
sg16
I40
sg17
g18
sg2812
g0
(g73
g20
(lp2813
g0
(g75
g2
Ntp2814
Rp2815
(dp2816
g14
I00
sg32
I01
sg15
I00
sS'record'
p2817
g0
(g91
g2
Ntp2818
Rp2819
(dp2820
g14
I00
sg32
I01
sg95
S'SiPixelQualityFromDbRcd'
p2821
sg15
I00
sbsS'tag'
p2822
g0
(g91
g2
Ntp2823
Rp2824
(dp2825
g14
I00
sg32
I01
sg95
g67
sg15
I00
sbsg11
(lp2826
g2817
ag2822
asbag0
(g75
g2
Ntp2827
Rp2828
(dp2829
g14
I00
sg32
I01
sg15
I00
sg2817
g0
(g91
g2
Ntp2830
Rp2831
(dp2832
g14
I00
sg32
I01
sg95
S'SiPixelDetVOffRcd'
p2833
sg15
I00
sbsg2822
g0
(g91
g2
Ntp2834
Rp2835
(dp2836
g14
I00
sg32
I01
sg95
g67
sg15
I00
sbsg11
(lp2837
g2817
ag2822
asbatp2838
Rp2839
(dp2840
g14
I00
sg32
I01
sg15
I00
sg33
I1
sbsg34
g2807
sg35
S'SiPixelQualityESProducer'
p2841
sbsS'GlobalTag'
p2842
g0
(cFWCore.ParameterSet.Modules
ESSource
p2843
g2
Ntp2844
Rp2845
(dp2846
g11
(lp2847
S'DBParameters'
p2848
aS'connect'
p2849
aS'globaltag'
p2850
aS'RefreshEachRun'
p2851
aS'pfnPrefix'
p2852
aS'snapshotTime'
p2853
aS'toGet'
p2854
aS'pfnPostfix'
p2855
aS'RefreshAlways'
p2856
aS'ReconnectEachRun'
p2857
aS'RefreshOpenIOVs'
p2858
aS'DumpStat'
p2859
asg14
I00
sg17
S'/cvmfs/cms.cern.ch/slc6_amd64_gcc530/cms/cmssw/CMSSW_8_0_12/python/CondCore/ESSources/CondDBESSource_cfi.py'
p2860
sg15
I01
sg2850
g0
(g91
g2
Ntp2861
Rp2862
(dp2863
g14
I00
sg32
I01
sg95
S'80X_mcRun2_asymptotic_2016_miniAODv2_v1'
p2864
sg15
I01
sbsg2851
g0
(g242
g2
Ntp2865
Rp2866
(dp2867
g14
I00
sg32
I00
sg95
I00
sg15
I00
sbsg2852
g0
(g91
g2
Ntp2868
Rp2869
(dp2870
g14
I00
sg32
I00
sg95
g67
sg15
I00
sbsg2853
g0
(g91
g2
Ntp2871
Rp2872
(dp2873
g14
I00
sg32
I01
sg95
g67
sg15
I00
sbsg2854
g0
(g73
g20
(lp2874
tp2875
Rp2876
(dp2877
g14
I00
sg32
I01
sg15
I00
sg33
I1
sbsg2855
g0
(g91
g2
Ntp2878
Rp2879
(dp2880
g14
I00
sg32
I00
sg95
g67
sg15
I00
sbsg2848
g0
(g75
g2
Ntp2881
Rp2882
(dp2883
g14
I00
sg32
I01
sS'authenticationPath'
p2884
g0
(g91
g2
Ntp2885
Rp2886
(dp2887
g14
I00
sg32
I00
sg95
g67
sg15
I00
sbsg15
I00
sS'messageLevel'
p2888
g0
(g1945
g2
Ntp2889
Rp2890
(dp2891
g14
I00
sg32
I00
sg95
I0
sg15
I00
sbsg11
(lp2892
g2888
aS'security'
p2893
aS'authenticationSystem'
p2894
ag2884
asg2893
g0
(g91
g2
Ntp2895
Rp2896
(dp2897
g14
I00
sg32
I00
sg95
g67
sg15
I00
sbsg2894
g0
(g1945
g2
Ntp2898
Rp2899
(dp2900
g14
I00
sg32
I00
sg95
I0
sg15
I00
sbsbsg2856
g0
(g242
g2
Ntp2901
Rp2902
(dp2903
g14
I00
sg32
I00
sg95
I00
sg15
I00
sbsg16
I19
sg2849
g0
(g91
g2
Ntp2904
Rp2905
(dp2906
g14
I00
sg32
I01
sg95
S'frontier://FrontierProd/CMS_CONDITIONS'
p2907
sg15
I00
sbsg2857
g0
(g242
g2
Ntp2908
Rp2909
(dp2910
g14
I00
sg32
I00
sg95
I00
sg15
I00
sbsg34
g2842
sg2858
g0
(g242
g2
Ntp2911
Rp2912
(dp2913
g14
I00
sg32
I00
sg95
I00
sg15
I00
sbsg2859
g0
(g242
g2
Ntp2914
Rp2915
(dp2916
g14
I00
sg32
I00
sg95
I00
sg15
I00
sbsg35
S'PoolDBESSource'
p2917
sbsS'mvaEleID_Spring15_50ns_Trig_V1_wp90'
p2918
g0
(g75
g2
Ntp2919
Rp2920
(dp2921
g14
I00
sg32
I01
sg15
I01
sg226
g0
(g91
g2
Ntp2922
Rp2923
(dp2924
g14
I00
sg32
I01
sg95
S'mvaEleID-Spring15-50ns-Trig-V1-wp90'
p2925
sg15
I00
sbsg231
g0
(g73
g20
(lp2926
g0
(g75
g2
Ntp2927
Rp2928
(dp2929
g14
I00
sg32
I01
sg1983
g0
(g58
g2
Ntp2930
Rp2931
(dp2932
g14
I00
sg32
I01
sg15
I00
sg62
S'electronMVAValueMapProducer'
p2933
sg64
g67
sg66
S'ElectronMVAEstimatorRun2Spring15Trig50nsV1Values'
p2934
sbsg1989
g0
(g58
g2
Ntp2935
Rp2936
(dp2937
g14
I00
sg32
I01
sg15
I00
sg62
S'electronMVAValueMapProducer'
p2938
sg64
g67
sg66
S'ElectronMVAEstimatorRun2Spring15Trig50nsV1Categories'
p2939
sbsg236
g0
(g91
g2
Ntp2940
Rp2941
(dp2942
g14
I00
sg32
I01
sg95
g1998
sg15
I00
sbsg241
g0
(g242
g2
Ntp2943
Rp2944
(dp2945
g14
I00
sg32
I01
sg95
I01
sg15
I00
sbsg2002
g0
(g2003
g20
(lp2946
F0.953843
aF0.849994
aF0.514118
atp2947
Rp2948
(dp2949
g14
I00
sg32
I01
sg15
I00
sbsg246
g0
(g242
g2
Ntp2950
Rp2951
(dp2952
g14
I00
sg32
I01
sg95
I00
sg15
I00
sbsg11
(lp2953
g1983
ag1989
ag236
ag241
ag2002
ag246
asg15
I00
sbatp2954
Rp2955
(dp2956
g14
I00
sg32
I01
sg15
I00
sg33
I1
sbsg608
g0
(g242
g2
Ntp2957
Rp2958
(dp2959
g14
I00
sg32
I00
sg95
I01
sg15
I00
sbsg11
(lp2960
g226
ag231
ag608
asg34
g2918
sbsS'TransientTrackBuilderESProducer'
p2961
g0
(g7
g2
Ntp2962
Rp2963
(dp2964
g11
(lp2965
S'ComponentName'
p2966
asg14
I00
sg15
I00
sg16
I40
sg17
g18
sg2966
g0
(g91
g2
Ntp2967
Rp2968
(dp2969
g14
I00
sg32
I01
sg95
S'TransientTrackBuilder'
p2970
sg15
I00
sbsg34
g2961
sg35
g2961
sbsS'_Process__endpaths'
p2971
g0
(cFWCore.ParameterSet.DictTypes
SortedKeysDict
p2972
c__builtin__
dict
p2973
(dp2974
tp2975
Rp2976
(dp2977
S'list'
p2978
(lp2979
sbsS'p'
p2980
g0
(cFWCore.ParameterSet.SequenceTypes
Path
p2981
g2
Ntp2982
Rp2983
(dp2984
g14
I00
sg43
g0
(g44
g2
Ntp2985
Rp2986
(dp2987
g48
(lp2988
g2791
ag2719
ag2688
ag2765
ag41
ag0
(cFWCore.ParameterSet.Modules
EDAnalyzer
p2989
g2
Ntp2990
Rp2991
(dp2992
g16
I345
sS'Photon_eta_max'
p2993
g0
(g252
g2
Ntp2994
Rp2995
(dp2996
g14
I00
sg32
I01
sg95
F5.0
sg15
I00
sbsS'elemvaCategoriesMap_Trig'
p2997
g0
(g58
g2
Ntp2998
Rp2999
(dp3000
g14
I00
sg32
I01
sg15
I00
sg62
S'electronMVAValueMapProducer'
p3001
sg64
g67
sg66
S'ElectronMVAEstimatorRun2Spring15Trig25nsV1Categories'
p3002
sbsS'PUReweightfile'
p3003
g0
(g534
g2
Ntp3004
Rp3005
(dp3006
g14
I00
sg32
I01
sg95
S'BSMFramework/BSM3G_TNT_Maker/data/PUReweight/PileUpReweighting2016.root'
p3007
sg15
I00
sbsS'filleventinfo'
p3008
g0
(g242
g2
Ntp3009
Rp3010
(dp3011
g14
I00
sg32
I01
sg95
I00
sg15
I00
sbsS'jecPayloadNamesAK4PFPuppiMC1'
p3012
g0
(g534
g2
Ntp3013
Rp3014
(dp3015
g14
I00
sg32
I01
sg95
S'BSMFramework/BSM3G_TNT_Maker/data/JEC/MC/Spring16_25nsV6_MC_L1FastJet_AK4PFPuppi.txt'
p3016
sg15
I00
sbsS'jecPayloadNamesAK4PFPuppiMC2'
p3017
g0
(g534
g2
Ntp3018
Rp3019
(dp3020
g14
I00
sg32
I01
sg95
S'BSMFramework/BSM3G_TNT_Maker/data/JEC/MC/Spring16_25nsV6_MC_L2Relative_AK4PFPuppi.txt'
p3021
sg15
I00
sbsS'jecPayloadNamesAK4PFPuppiMC3'
p3022
g0
(g534
g2
Ntp3023
Rp3024
(dp3025
g14
I00
sg32
I01
sg95
S'BSMFramework/BSM3G_TNT_Maker/data/JEC/MC/Spring16_25nsV6_MC_L3Absolute_AK4PFPuppi.txt'
p3026
sg15
I00
sbsS'jerAK8PFPuppi'
p3027
g0
(g534
g2
Ntp3028
Rp3029
(dp3030
g14
I00
sg32
I01
sg95
S'BSMFramework/BSM3G_TNT_Maker/data/JER/Spring16_25nsV6_MC_PtResolution_AK8PFPuppi.txt'
p3031
sg15
I00
sbsg11
(lp3032
g2993
ag2997
ag3003
ag3008
ag3012
ag3017
ag3022
ag3027
aS'genJetPtMin'
p3033
aS'elemvaValuesMap_Trig'
p3034
aS'photons'
p3035
aS'jecPayloadNamesAK4PFchsDATA4'
p3036
aS'filltriggerinfo'
p3037
aS'super_TNT'
p3038
aS'pruned'
p3039
aS'jerAK4PFchsSF'
p3040
aS'electronLooseIdMap'
p3041
aS'Muon_pt_min'
p3042
aS'fillBoostedJetinfo'
p3043
aS'jecPayloadNamesAK4PFchsDATA2'
p3044
aS'jecPayloadNamesAK4PFchsDATA3'
p3045
aS'jecPayloadNamesAK4PFchsDATA1'
p3046
aS'jecPayloadNamesAK4PFchsMC1'
p3047
aS'jecPayloadNamesAK4PFchsMC2'
p3048
aS'jecPayloadNamesAK4PFchsMC3'
p3049
aS'genBHadFromTopWeakDecay'
p3050
aS'fatjets'
p3051
aS'fillMETinfo'
p3052
aS'Pvtx_ndof_min'
p3053
aS'jerAK4PFPuppi'
p3054
aS'jecPayloadNamesAK4PFPuppiDATA3'
p3055
aS'genBHadLeptonViaTau'
p3056
aS'genCHadBHadronId'
p3057
aS'is_data'
p3058
aS'mets'
p3059
aS'fillPVinfo'
p3060
aS'packedPFCandidates'
p3061
aS'vtx_position_z_max'
p3062
aS'fillBJetnessinfo'
p3063
aS'jecPayloadNamesAK8PFchsMC1'
p3064
aS'jecPayloadNamesAK8PFchsMC2'
p3065
aS'jecPayloadNamesAK8PFchsMC3'
p3066
aS'genCHadFromTopWeakDecay'
p3067
aS'topsubjets'
p3068
aS'maxtriggerversion'
p3069
aS'metFilterBits'
p3070
aS'filltauinfo'
p3071
aS'jecPayloadNamesAK4PFPuppiDATA4'
p3072
aS'jecPayloadNamesAK4PFPuppiDATA2'
p3073
aS'vtx_ndof_min'
p3074
aS'jecPayloadNamesAK4PFPuppiDATA1'
p3075
aS'objects'
p3076
ag2728
aS'genBHadPlusMothers'
p3077
aS'genBHadFlavour'
p3078
aS'jecPayloadNamesAK8PFchsDATA4'
p3079
aS'jecPayloadNamesAK8PFchsDATA2'
p3080
aS'jecPayloadNamesAK8PFchsDATA3'
p3081
aS'jecPayloadNamesAK8PFchsDATA1'
p3082
aS'fillBTagReweight'
p3083
aS'Jet_pt_min'
p3084
aS'debug_'
p3085
aS'jerAK8PFPuppiSF'
p3086
aS'BTAGReweightfile1'
p3087
aS'BTAGReweightfile2'
p3088
aS'fillBJetnessFVinfo'
p3089
aS'jetsPUPPI'
p3090
aS'PuppiVar'
p3091
aS'patElectrons'
p3092
aS'elemvaCategoriesMap_nonTrig'
p3093
aS'jerAK8PFchs'
p3094
aS'patElectron_eta_max'
p3095
aS'jerAK8PFchsSF'
p3096
aS'Pvtx_vtx_max'
p3097
aS'tthlepVar'
p3098
aS'genJetAbsEtaMax'
p3099
aS'muons'
p3100
aS'bits'
p3101
aS'Tau_pt_min'
p3102
aS'fillTauJetnessinfo'
p3103
aS'genBHadIndex'
p3104
aS'eleMVATrigwp90IdMap'
p3105
aS'jecPayloadNamesAK4PFPuppiMCUnc'
p3106
aS'Tau_eta_max'
p3107
aS'fillphotoninfo'
p3108
aS'filljetinfo'
p3109
aS'fillgeninfo'
p3110
aS'fillPileupReweight'
p3111
ag107
aS'fillmuoninfo'
p3112
aS'jecPayloadNamesAK8PFchsMCUnc'
p3113
aS'genBHadJetIndex'
p3114
aS'taus'
p3115
aS'electronVetoIdMap'
p3116
aS'eleHEEPIdMap'
p3117
aS'jerAK4PFchs'
p3118
aS'ifevtriggers'
p3119
aS'jecPayloadNamesAK8PFchsDATAUnc'
p3120
aS'Muon_eta_max'
p3121
aS'Pvtx_vtxdxy_max'
p3122
aS'Photon_pt_min'
p3123
aS'genJets'
p3124
aS'vtx_rho_max'
p3125
aS'fillelectronpatinfo'
p3126
aS'metsPUPPI'
p3127
aS'patElectron_pt_min'
p3128
aS'jecPayloadNamesAK4PFPuppiDATAUnc'
p3129
aS'electronMediumIdMap'
p3130
aS'AJVar'
p3131
aS'genBHadPlusMothersIndices'
p3132
aS'eleMVATrigIdMap'
p3133
aS'eleMVAnonTrigIdMap'
p3134
aS'qglVar'
p3135
aS'fillgenHFCategoryinfo'
p3136
aS'eleMVAnonTrigwp90IdMap'
p3137
aS'genBHadLeptonHadronIndex'
p3138
aS'elemvaValuesMap_nonTrig'
p3139
aS'filltthjetinfo'
p3140
aS'genCHadJetIndex'
p3141
aS'evtriggers'
p3142
aS'fillTopSubJetinfo'
p3143
aS'electronTightIdMap'
p3144
aS'jerAK4PFPuppiSF'
p3145
aS'jecPayloadNamesAK4PFchsDATAUnc'
p3146
aS'jecPayloadNamesAK4PFchsMCUnc'
p3147
aS'prescales'
p3148
aS'vertices'
p3149
aS'genCHadFlavour'
p3150
aS'MiniAODv2'
p3151
asg3033
g0
(g252
g2
Ntp3152
Rp3153
(dp3154
g14
I00
sg32
I01
sg95
F20.0
sg15
I00
sbsg3034
g0
(g58
g2
Ntp3155
Rp3156
(dp3157
g14
I00
sg32
I01
sg15
I00
sg62
S'electronMVAValueMapProducer'
p3158
sg64
g67
sg66
S'ElectronMVAEstimatorRun2Spring15Trig25nsV1Values'
p3159
sbsg17
g2703
sg3035
g0
(g58
g2
Ntp3160
Rp3161
(dp3162
g14
I00
sg32
I01
sg15
I00
sg62
S'slimmedPhotons'
p3163
sg64
g67
sg66
g67
sbsg3036
g0
(g534
g2
Ntp3164
Rp3165
(dp3166
g14
I00
sg32
I01
sg95
S'BSMFramework/BSM3G_TNT_Maker/data/JEC/DATA/Spring16_25nsV6_DATA_L2L3Residual_AK4PFchs.txt'
p3167
sg15
I00
sbsg3037
g0
(g242
g2
Ntp3168
Rp3169
(dp3170
g14
I00
sg32
I01
sg95
I00
sg15
I00
sbsg3038
g0
(g242
g2
Ntp3171
Rp3172
(dp3173
g14
I00
sg32
I01
sg95
I00
sg15
I00
sbsg3039
g0
(g58
g2
Ntp3174
Rp3175
(dp3176
g14
I00
sg32
I01
sg15
I00
sg62
g2699
sg64
g67
sg66
g67
sbsg3040
g0
(g534
g2
Ntp3177
Rp3178
(dp3179
g14
I00
sg32
I01
sg95
S'BSMFramework/BSM3G_TNT_Maker/data/JER/Spring16_25nsV6_MC_SF_AK4PFchs.txt'
p3180
sg15
I00
sbsg3041
g0
(g58
g2
Ntp3181
Rp3182
(dp3183
g14
I00
sg32
I01
sg15
I00
sg62
S'egmGsfElectronIDs'
p3184
sg64
g67
sg66
S'cutBasedElectronID-Spring15-25ns-V1-standalone-loose'
p3185
sbsg3042
g0
(g252
g2
Ntp3186
Rp3187
(dp3188
g14
I00
sg32
I01
sg95
F5.0
sg15
I00
sbsg3043
g0
(g242
g2
Ntp3189
Rp3190
(dp3191
g14
I00
sg32
I01
sg95
I00
sg15
I00
sbsg3044
g0
(g534
g2
Ntp3192
Rp3193
(dp3194
g14
I00
sg32
I01
sg95
S'BSMFramework/BSM3G_TNT_Maker/data/JEC/DATA/Spring16_25nsV6_DATA_L2Relative_AK4PFchs.txt'
p3195
sg15
I00
sbsg3045
g0
(g534
g2
Ntp3196
Rp3197
(dp3198
g14
I00
sg32
I01
sg95
S'BSMFramework/BSM3G_TNT_Maker/data/JEC/DATA/Spring16_25nsV6_DATA_L3Absolute_AK4PFchs.txt'
p3199
sg15
I00
sbsg3046
g0
(g534
g2
Ntp3200
Rp3201
(dp3202
g14
I00
sg32
I01
sg95
S'BSMFramework/BSM3G_TNT_Maker/data/JEC/DATA/Spring16_25nsV6_DATA_L1FastJet_AK4PFchs.txt'
p3203
sg15
I00
sbsg3047
g0
(g534
g2
Ntp3204
Rp3205
(dp3206
g14
I00
sg32
I01
sg95
S'BSMFramework/BSM3G_TNT_Maker/data/JEC/MC/Spring16_25nsV6_MC_L1FastJet_AK4PFchs.txt'
p3207
sg15
I00
sbsg3048
g0
(g534
g2
Ntp3208
Rp3209
(dp3210
g14
I00
sg32
I01
sg95
S'BSMFramework/BSM3G_TNT_Maker/data/JEC/MC/Spring16_25nsV6_MC_L2Relative_AK4PFchs.txt'
p3211
sg15
I00
sbsg3049
g0
(g534
g2
Ntp3212
Rp3213
(dp3214
g14
I00
sg32
I01
sg95
S'BSMFramework/BSM3G_TNT_Maker/data/JEC/MC/Spring16_25nsV6_MC_L3Absolute_AK4PFchs.txt'
p3215
sg15
I00
sbsg3050
g0
(g58
g2
Ntp3216
Rp3217
(dp3218
g14
I00
sg32
I01
sg15
I00
sg62
g2763
sg64
g67
sg66
g3050
sbsg3051
g0
(g58
g2
Ntp3219
Rp3220
(dp3221
g14
I00
sg32
I01
sg15
I00
sg62
S'slimmedJetsAK8'
p3222
sg64
g67
sg66
g67
sbsg3073
g0
(g534
g2
Ntp3223
Rp3224
(dp3225
g14
I00
sg32
I01
sg95
S'BSMFramework/BSM3G_TNT_Maker/data/JEC/DATA/Spring16_25nsV6_DATA_L2Relative_AK4PFPuppi.txt'
p3226
sg15
I00
sbsg3053
g0
(g252
g2
Ntp3227
Rp3228
(dp3229
g14
I00
sg32
I01
sg95
F4.0
sg15
I00
sbsg3054
g0
(g534
g2
Ntp3230
Rp3231
(dp3232
g14
I00
sg32
I01
sg95
S'BSMFramework/BSM3G_TNT_Maker/data/JER/Spring16_25nsV6_MC_PtResolution_AK4PFPuppi.txt'
p3233
sg15
I00
sbsg3074
g0
(g1945
g2
Ntp3234
Rp3235
(dp3236
g14
I00
sg32
I01
sg95
I4
sg15
I00
sbsg3056
g0
(g58
g2
Ntp3237
Rp3238
(dp3239
g14
I00
sg32
I01
sg15
I00
sg62
g2763
sg64
g67
sg66
g3056
sbsg3057
g0
(g58
g2
Ntp3240
Rp3241
(dp3242
g14
I00
sg32
I01
sg15
I00
sg62
g2686
sg64
g67
sg66
g3057
sbsg3058
g0
(g242
g2
Ntp3243
Rp3244
(dp3245
g14
I00
sg32
I01
sg95
I00
sg15
I00
sbsg3059
g0
(g58
g2
Ntp3246
Rp3247
(dp3248
g14
I00
sg32
I01
sg15
I00
sg62
S'slimmedMETs'
p3249
sg64
g67
sg66
g67
sbsg3060
g0
(g242
g2
Ntp3250
Rp3251
(dp3252
g14
I00
sg32
I01
sg95
I00
sg15
I00
sbsg3061
g0
(g58
g2
Ntp3253
Rp3254
(dp3255
g14
I00
sg32
I01
sg15
I00
sg62
g3061
sg64
g67
sg66
g67
sbsg3062
g0
(g252
g2
Ntp3256
Rp3257
(dp3258
g14
I00
sg32
I01
sg95
F24.0
sg15
I00
sbsg3063
g0
(g242
g2
Ntp3259
Rp3260
(dp3261
g14
I00
sg32
I01
sg95
I01
sg15
I00
sbsg3064
g0
(g534
g2
Ntp3262
Rp3263
(dp3264
g14
I00
sg32
I01
sg95
S'BSMFramework/BSM3G_TNT_Maker/data/JEC/MC/Spring16_25nsV6_MC_L1FastJet_AK8PFchs.txt'
p3265
sg15
I00
sbsg3065
g0
(g534
g2
Ntp3266
Rp3267
(dp3268
g14
I00
sg32
I01
sg95
S'BSMFramework/BSM3G_TNT_Maker/data/JEC/MC/Spring16_25nsV6_MC_L2Relative_AK8PFchs.txt'
p3269
sg15
I00
sbsg3066
g0
(g534
g2
Ntp3270
Rp3271
(dp3272
g14
I00
sg32
I01
sg95
S'BSMFramework/BSM3G_TNT_Maker/data/JEC/MC/Spring16_25nsV6_MC_L3Absolute_AK8PFchs.txt'
p3273
sg15
I00
sbsg3067
g0
(g58
g2
Ntp3274
Rp3275
(dp3276
g14
I00
sg32
I01
sg15
I00
sg62
g2686
sg64
g67
sg66
g3067
sbsg3068
g0
(g58
g2
Ntp3277
Rp3278
(dp3279
g14
I00
sg32
I01
sg15
I00
sg62
S'slimmedJetsCMSTopTagCHSPacked'
p3280
sg64
g67
sg66
S'SubJets'
p3281
sbsg3069
g0
(g252
g2
Ntp3282
Rp3283
(dp3284
g14
I00
sg32
I01
sg95
I10
sg15
I00
sbsg3070
g0
(g58
g2
Ntp3285
Rp3286
(dp3287
g14
I00
sg32
I01
sg15
I00
sg62
S'TriggerResults'
p3288
sg64
S'PAT'
p3289
sg66
g67
sbsg3116
g0
(g58
g2
Ntp3290
Rp3291
(dp3292
g14
I00
sg32
I01
sg15
I00
sg62
S'egmGsfElectronIDs'
p3293
sg64
g67
sg66
S'cutBasedElectronID-Spring15-25ns-V1-standalone-veto'
p3294
sbsg3072
g0
(g534
g2
Ntp3295
Rp3296
(dp3297
g14
I00
sg32
I01
sg95
S'BSMFramework/BSM3G_TNT_Maker/data/JEC/DATA/Spring16_25nsV6_DATA_L2L3Residual_AK4PFPuppi.txt'
p3298
sg15
I00
sbsg3052
g0
(g242
g2
Ntp3299
Rp3300
(dp3301
g14
I00
sg32
I01
sg95
I01
sg15
I00
sbsg3055
g0
(g534
g2
Ntp3302
Rp3303
(dp3304
g14
I00
sg32
I01
sg95
S'BSMFramework/BSM3G_TNT_Maker/data/JEC/DATA/Spring16_25nsV6_DATA_L3Absolute_AK4PFPuppi.txt'
p3305
sg15
I00
sbsg3075
g0
(g534
g2
Ntp3306
Rp3307
(dp3308
g14
I00
sg32
I01
sg95
S'BSMFramework/BSM3G_TNT_Maker/data/JEC/DATA/Spring16_25nsV6_DATA_L1FastJet_AK4PFPuppi.txt'
p3309
sg15
I00
sbsg3076
g0
(g58
g2
Ntp3310
Rp3311
(dp3312
g14
I00
sg32
I01
sg15
I00
sg62
S'selectedPatTrigger'
p3313
sg64
g67
sg66
g67
sbsg2728
g0
(g58
g2
Ntp3314
Rp3315
(dp3316
g14
I00
sg32
I01
sg15
I00
sg62
S'slimmedJets'
p3317
sg64
g67
sg66
g67
sbsg3077
g0
(g58
g2
Ntp3318
Rp3319
(dp3320
g14
I00
sg32
I01
sg15
I00
sg62
g2763
sg64
g67
sg66
g3077
sbsg3078
g0
(g58
g2
Ntp3321
Rp3322
(dp3323
g14
I00
sg32
I01
sg15
I00
sg62
g2763
sg64
g67
sg66
g3078
sbsg3079
g0
(g534
g2
Ntp3324
Rp3325
(dp3326
g14
I00
sg32
I01
sg95
S'BSMFramework/BSM3G_TNT_Maker/data/JEC/DATA/Spring16_25nsV6_DATA_L2L3Residual_AK8PFchs.txt'
p3327
sg15
I00
sbsg3080
g0
(g534
g2
Ntp3328
Rp3329
(dp3330
g14
I00
sg32
I01
sg95
S'BSMFramework/BSM3G_TNT_Maker/data/JEC/DATA/Spring16_25nsV6_DATA_L2Relative_AK8PFchs.txt'
p3331
sg15
I00
sbsg3081
g0
(g534
g2
Ntp3332
Rp3333
(dp3334
g14
I00
sg32
I01
sg95
S'BSMFramework/BSM3G_TNT_Maker/data/JEC/DATA/Spring16_25nsV6_DATA_L3Absolute_AK8PFchs.txt'
p3335
sg15
I00
sbsg3082
g0
(g534
g2
Ntp3336
Rp3337
(dp3338
g14
I00
sg32
I01
sg95
S'BSMFramework/BSM3G_TNT_Maker/data/JEC/DATA/Spring16_25nsV6_DATA_L1FastJet_AK8PFchs.txt'
p3339
sg15
I00
sbsg3083
g0
(g242
g2
Ntp3340
Rp3341
(dp3342
g14
I00
sg32
I01
sg95
I01
sg15
I00
sbsg3084
g0
(g252
g2
Ntp3343
Rp3344
(dp3345
g14
I00
sg32
I01
sg95
F10.0
sg15
I00
sbsg3085
g0
(g242
g2
Ntp3346
Rp3347
(dp3348
g14
I00
sg32
I01
sg95
I00
sg15
I00
sbsg3086
g0
(g534
g2
Ntp3349
Rp3350
(dp3351
g14
I00
sg32
I01
sg95
S'BSMFramework/BSM3G_TNT_Maker/data/JER/Spring16_25nsV6_MC_SF_AK8PFPuppi.txt'
p3352
sg15
I00
sbsg3087
g0
(g534
g2
Ntp3353
Rp3354
(dp3355
g14
I00
sg32
I01
sg95
S'BSMFramework/BSM3G_TNT_Maker/data/BTAGReweight/csv_rwt_fit_hf_v2_final_2016_06_30test.root'
p3356
sg15
I00
sbsg3088
g0
(g534
g2
Ntp3357
Rp3358
(dp3359
g14
I00
sg32
I01
sg95
S'BSMFramework/BSM3G_TNT_Maker/data/BTAGReweight/csv_rwt_fit_lf_v2_final_2016_06_30test.root'
p3360
sg15
I00
sbsg3089
g0
(g242
g2
Ntp3361
Rp3362
(dp3363
g14
I00
sg32
I01
sg95
I01
sg15
I00
sbsg14
I00
sg3090
g0
(g58
g2
Ntp3364
Rp3365
(dp3366
g14
I00
sg32
I01
sg15
I00
sg62
S'slimmedJetsPuppi'
p3367
sg64
g67
sg66
g67
sbsg3091
g0
(g242
g2
Ntp3368
Rp3369
(dp3370
g14
I00
sg32
I01
sg95
I00
sg15
I00
sbsg3092
g0
(g58
g2
Ntp3371
Rp3372
(dp3373
g14
I00
sg32
I01
sg15
I00
sg62
g63
sg64
g67
sg66
g67
sbsg3093
g0
(g58
g2
Ntp3374
Rp3375
(dp3376
g14
I00
sg32
I01
sg15
I00
sg62
S'electronMVAValueMapProducer'
p3377
sg64
g67
sg66
S'ElectronMVAEstimatorRun2Spring15NonTrig25nsV1Categories'
p3378
sbsg3094
g0
(g534
g2
Ntp3379
Rp3380
(dp3381
g14
I00
sg32
I01
sg95
S'BSMFramework/BSM3G_TNT_Maker/data/JER/Spring16_25nsV6_MC_PtResolution_AK8PFchs.txt'
p3382
sg15
I00
sbsg3095
g0
(g252
g2
Ntp3383
Rp3384
(dp3385
g14
I00
sg32
I01
sg95
I50
sg15
I00
sbsg35
S'BSM3G_TNT_Maker'
p3386
sg3096
g0
(g534
g2
Ntp3387
Rp3388
(dp3389
g14
I00
sg32
I01
sg95
S'BSMFramework/BSM3G_TNT_Maker/data/JER/Spring16_25nsV6_MC_SF_AK8PFchs.txt'
p3390
sg15
I00
sbsg3097
g0
(g252
g2
Ntp3391
Rp3392
(dp3393
g14
I00
sg32
I01
sg95
F24.0
sg15
I00
sbsg3098
g0
(g242
g2
Ntp3394
Rp3395
(dp3396
g14
I00
sg32
I01
sg95
I01
sg15
I00
sbsg3099
g0
(g252
g2
Ntp3397
Rp3398
(dp3399
g14
I00
sg32
I01
sg95
F2.4
sg15
I00
sbsg3100
g0
(g58
g2
Ntp3400
Rp3401
(dp3402
g14
I00
sg32
I01
sg15
I00
sg62
S'slimmedMuons'
p3403
sg64
g67
sg66
g67
sbsg3101
g0
(g58
g2
Ntp3404
Rp3405
(dp3406
g14
I00
sg32
I01
sg15
I00
sg62
g3288
sg64
S'HLT2'
p3407
sg66
g67
sbsg3102
g0
(g252
g2
Ntp3408
Rp3409
(dp3410
g14
I00
sg32
I01
sg95
F15.0
sg15
I00
sbsg3103
g0
(g242
g2
Ntp3411
Rp3412
(dp3413
g14
I00
sg32
I01
sg95
I00
sg15
I00
sbsg3104
g0
(g58
g2
Ntp3414
Rp3415
(dp3416
g14
I00
sg32
I01
sg15
I00
sg62
g2763
sg64
g67
sg66
g3104
sbsg3105
g0
(g58
g2
Ntp3417
Rp3418
(dp3419
g14
I00
sg32
I01
sg15
I00
sg62
S'egmGsfElectronIDs'
p3420
sg64
g67
sg66
S'mvaEleID-Spring15-25ns-Trig-V1-wp90'
p3421
sbsg3106
g0
(g534
g2
Ntp3422
Rp3423
(dp3424
g14
I00
sg32
I01
sg95
S'BSMFramework/BSM3G_TNT_Maker/data/JEC/MC/Spring16_25nsV6_MC_Uncertainty_AK4PFPuppi.txt'
p3425
sg15
I00
sbsg3107
g0
(g252
g2
Ntp3426
Rp3427
(dp3428
g14
I00
sg32
I01
sg95
F50.0
sg15
I00
sbsg3108
g0
(g242
g2
Ntp3429
Rp3430
(dp3431
g14
I00
sg32
I01
sg95
I00
sg15
I00
sbsg3109
g0
(g242
g2
Ntp3432
Rp3433
(dp3434
g14
I00
sg32
I01
sg95
I00
sg15
I00
sbsg3110
g0
(g242
g2
Ntp3435
Rp3436
(dp3437
g14
I00
sg32
I01
sg95
I00
sg15
I00
sbsg3111
g0
(g242
g2
Ntp3438
Rp3439
(dp3440
g14
I00
sg32
I01
sg95
I01
sg15
I00
sbsg107
g0
(g58
g2
Ntp3441
Rp3442
(dp3443
g14
I00
sg32
I01
sg15
I00
sg62
g111
sg64
g67
sg66
g67
sbsg3112
g0
(g242
g2
Ntp3444
Rp3445
(dp3446
g14
I00
sg32
I01
sg95
I00
sg15
I00
sbsg3113
g0
(g534
g2
Ntp3447
Rp3448
(dp3449
g14
I00
sg32
I01
sg95
S'BSMFramework/BSM3G_TNT_Maker/data/JEC/MC/Spring16_25nsV6_MC_Uncertainty_AK8PFchs.txt'
p3450
sg15
I00
sbsg3114
g0
(g58
g2
Ntp3451
Rp3452
(dp3453
g14
I00
sg32
I01
sg15
I00
sg62
g2763
sg64
g67
sg66
g3114
sbsg3115
g0
(g58
g2
Ntp3454
Rp3455
(dp3456
g14
I00
sg32
I01
sg15
I00
sg62
S'slimmedTaus'
p3457
sg64
g67
sg66
g67
sbsg3071
g0
(g242
g2
Ntp3458
Rp3459
(dp3460
g14
I00
sg32
I01
sg95
I00
sg15
I00
sbsg3117
g0
(g58
g2
Ntp3461
Rp3462
(dp3463
g14
I00
sg32
I01
sg15
I00
sg62
S'egmGsfElectronIDs'
p3464
sg64
g67
sg66
S'heepElectronID-HEEPV60'
p3465
sbsg3118
g0
(g534
g2
Ntp3466
Rp3467
(dp3468
g14
I00
sg32
I01
sg95
S'BSMFramework/BSM3G_TNT_Maker/data/JER/Spring16_25nsV6_MC_PtResolution_AK4PFchs.txt'
p3469
sg15
I00
sbsg3119
g0
(g242
g2
Ntp3470
Rp3471
(dp3472
g14
I00
sg32
I01
sg95
I00
sg15
I00
sbsg3120
g0
(g534
g2
Ntp3473
Rp3474
(dp3475
g14
I00
sg32
I01
sg95
S'BSMFramework/BSM3G_TNT_Maker/data/JEC/DATA/Spring16_25nsV6_DATA_Uncertainty_AK8PFchs.txt'
p3476
sg15
I00
sbsg3121
g0
(g252
g2
Ntp3477
Rp3478
(dp3479
g14
I00
sg32
I01
sg95
I50
sg15
I00
sbsg3122
g0
(g252
g2
Ntp3480
Rp3481
(dp3482
g14
I00
sg32
I01
sg95
F24.0
sg15
I00
sbsg3123
g0
(g252
g2
Ntp3483
Rp3484
(dp3485
g14
I00
sg32
I01
sg95
F5.0
sg15
I00
sbsg3124
g0
(g58
g2
Ntp3486
Rp3487
(dp3488
g14
I00
sg32
I01
sg15
I00
sg62
g2758
sg64
g67
sg66
g67
sbsg3125
g0
(g1945
g2
Ntp3489
Rp3490
(dp3491
g14
I00
sg32
I01
sg95
I2
sg15
I00
sbsg3126
g0
(g242
g2
Ntp3492
Rp3493
(dp3494
g14
I00
sg32
I01
sg95
I00
sg15
I00
sbsg3127
g0
(g58
g2
Ntp3495
Rp3496
(dp3497
g14
I00
sg32
I01
sg15
I00
sg62
S'slimmedMETsPuppi'
p3498
sg64
g67
sg66
g67
sbsg3128
g0
(g252
g2
Ntp3499
Rp3500
(dp3501
g14
I00
sg32
I01
sg95
F7.0
sg15
I00
sbsg3129
g0
(g534
g2
Ntp3502
Rp3503
(dp3504
g14
I00
sg32
I01
sg95
S'BSMFramework/BSM3G_TNT_Maker/data/JEC/DATA/Spring16_25nsV6_DATA_Uncertainty_AK4PFPuppi.txt'
p3505
sg15
I00
sbsg3130
g0
(g58
g2
Ntp3506
Rp3507
(dp3508
g14
I00
sg32
I01
sg15
I00
sg62
S'egmGsfElectronIDs'
p3509
sg64
g67
sg66
S'cutBasedElectronID-Spring15-25ns-V1-standalone-medium'
p3510
sbsg3131
g0
(g242
g2
Ntp3511
Rp3512
(dp3513
g14
I00
sg32
I01
sg95
I00
sg15
I00
sbsg3150
g0
(g58
g2
Ntp3514
Rp3515
(dp3516
g14
I00
sg32
I01
sg15
I00
sg62
g2686
sg64
g67
sg66
g3150
sbsg3133
g0
(g58
g2
Ntp3517
Rp3518
(dp3519
g14
I00
sg32
I01
sg15
I00
sg62
S'egmGsfElectronIDs'
p3520
sg64
g67
sg66
S'mvaEleID-Spring15-25ns-Trig-V1-wp80'
p3521
sbsg3134
g0
(g58
g2
Ntp3522
Rp3523
(dp3524
g14
I00
sg32
I01
sg15
I00
sg62
S'egmGsfElectronIDs'
p3525
sg64
g67
sg66
S'mvaEleID-Spring15-25ns-nonTrig-V1-wp80'
p3526
sbsg3135
g0
(g242
g2
Ntp3527
Rp3528
(dp3529
g14
I00
sg32
I01
sg95
I00
sg15
I00
sbsg3136
g0
(g242
g2
Ntp3530
Rp3531
(dp3532
g14
I00
sg32
I01
sg95
I01
sg15
I00
sbsg3137
g0
(g58
g2
Ntp3533
Rp3534
(dp3535
g14
I00
sg32
I01
sg15
I00
sg62
S'egmGsfElectronIDs'
p3536
sg64
g67
sg66
S'mvaEleID-Spring15-25ns-nonTrig-V1-wp90'
p3537
sbsg3138
g0
(g58
g2
Ntp3538
Rp3539
(dp3540
g14
I00
sg32
I01
sg15
I00
sg62
g2763
sg64
g67
sg66
g3138
sbsg3139
g0
(g58
g2
Ntp3541
Rp3542
(dp3543
g14
I00
sg32
I01
sg15
I00
sg62
S'electronMVAValueMapProducer'
p3544
sg64
g67
sg66
S'ElectronMVAEstimatorRun2Spring15NonTrig25nsV1Values'
p3545
sbsg3140
g0
(g242
g2
Ntp3546
Rp3547
(dp3548
g14
I00
sg32
I01
sg95
I00
sg15
I00
sbsg3141
g0
(g58
g2
Ntp3549
Rp3550
(dp3551
g14
I00
sg32
I01
sg15
I00
sg62
g2686
sg64
g67
sg66
g3141
sbsg3142
g0
(g19
g20
(lp3552
S'HLT_Ele17_Ele12_CaloIdL_TrackIdL_IsoVL_DZ_v'
p3553
aS'HLT_Mu17_TrkIsoVVL_Mu8_TrkIsoVVL_DZ_v'
p3554
aS'HLT_Mu17_TrkIsoVVL_TkMu8_TrkIsoVVL_DZ_v'
p3555
aS'HLT_IsoMu20_v'
p3556
aS'HLT_Mu17_TrkIsoVVL_Ele12_CaloIdL_TrackIdL_IsoVL_v'
p3557
aS'HLT_Mu8_TrkIsoVVL_Ele17_CaloIdL_TrackIdL_IsoVL_v'
p3558
aS'HLT_Ele27_eta2p1_WPTight_Gsf_v'
p3559
aS'HLT_IsoMu22_v'
p3560
aS'HLT_IsoTkMu22_v'
p3561
aS'HLT_Ele23_Ele12_CaloIdL_TrackIdL_IsoVL_DZ_v'
p3562
aS'HLT_Mu23_TrkIsoVVL_Ele12_CaloIdL_TrackIdL_IsoVL_v'
p3563
aS'HLT_Mu8_TrkIsoVVL_Ele23_CaloIdL_TrackIdL_IsoVL_v'
p3564
ag3554
ag3555
aS'HLT_Ele23_WPLoose_Gsf_v'
p3565
aS'HLT_Ele23_CaloIdL_TrackIdL_IsoVL_v'
p3566
aS'HLT_IsoTkMu20_v'
p3567
aS'HLT_DiMu9_Ele9_CaloIdL_TrackIdL_v'
p3568
aS'HLT_Mu8_DiEle12_CaloIdL_TrackIdL_v'
p3569
aS'HLT_TripleMu_12_10_5_v'
p3570
aS'HLT_Ele16_Ele12_Ele8_CaloIdL_TrackIdL_v'
p3571
aS'HLT_DoubleEle33_CaloIdL_GsfTrkIdVL_v'
p3572
atp3573
Rp3574
(dp3575
g14
I00
sg32
I01
sg15
I00
sg33
I1
sbsg3143
g0
(g242
g2
Ntp3576
Rp3577
(dp3578
g14
I00
sg32
I01
sg95
I00
sg15
I00
sbsg3144
g0
(g58
g2
Ntp3579
Rp3580
(dp3581
g14
I00
sg32
I01
sg15
I00
sg62
S'egmGsfElectronIDs'
p3582
sg64
g67
sg66
S'cutBasedElectronID-Spring15-25ns-V1-standalone-tight'
p3583
sbsg15
I00
sg3145
g0
(g534
g2
Ntp3584
Rp3585
(dp3586
g14
I00
sg32
I01
sg95
S'BSMFramework/BSM3G_TNT_Maker/data/JER/Spring16_25nsV6_MC_SF_AK4PFPuppi.txt'
p3587
sg15
I00
sbsg3146
g0
(g534
g2
Ntp3588
Rp3589
(dp3590
g14
I00
sg32
I01
sg95
S'BSMFramework/BSM3G_TNT_Maker/data/JEC/DATA/Spring16_25nsV6_DATA_Uncertainty_AK4PFchs.txt'
p3591
sg15
I00
sbsg3147
g0
(g534
g2
Ntp3592
Rp3593
(dp3594
g14
I00
sg32
I01
sg95
S'BSMFramework/BSM3G_TNT_Maker/data/JEC/MC/Spring16_25nsV6_MC_Uncertainty_AK4PFchs.txt'
p3595
sg15
I00
sbsg3148
g0
(g58
g2
Ntp3596
Rp3597
(dp3598
g14
I00
sg32
I01
sg15
I00
sg62
S'patTrigger'
p3599
sg64
g67
sg66
g67
sbsg3149
g0
(g58
g2
Ntp3600
Rp3601
(dp3602
g14
I00
sg32
I01
sg15
I00
sg62
g430
sg64
g67
sg66
g67
sbsg3132
g0
(g58
g2
Ntp3603
Rp3604
(dp3605
g14
I00
sg32
I01
sg15
I00
sg62
g2763
sg64
g67
sg66
g3132
sbsg34
S'TNT'
p3606
sg3151
g0
(g242
g2
Ntp3607
Rp3608
(dp3609
g14
I00
sg32
I01
sg95
I01
sg15
I00
sbsbasbsg15
I00
sg34
g2980
sbsS'MuonDetLayerGeometryESProducer'
p3610
g0
(g7
g2
Ntp3611
Rp3612
(dp3613
g11
(lp3614
sg14
I00
sg15
I00
sg16
I40
sg17
g18
sg34
g3610
sg35
g3610
sbsS'EcalEndcapGeometryFromDBEP'
p3615
g0
(g7
g2
Ntp3616
Rp3617
(dp3618
g11
(lp3619
g2664
asg14
I00
sg15
I01
sg16
I40
sg17
g18
sg34
g3615
sg2664
g0
(g242
g2
Ntp3620
Rp3621
(dp3622
g14
I00
sg32
I01
sg95
I01
sg15
I01
sbsg35
g3615
sbsS'MessageLogger'
p3623
g0
(g2306
g2
Ntp3624
Rp3625
(dp3626
g14
I00
sS'suppressInfo'
p3627
g0
(g19
g20
(lp3628
tp3629
Rp3630
(dp3631
g14
I00
sg32
I00
sg15
I00
sg33
I1
sbsS'suppressDebug'
p3632
g0
(g19
g20
(lp3633
tp3634
Rp3635
(dp3636
g14
I00
sg32
I00
sg15
I00
sg33
I1
sbsS'cout'
p3637
g0
(g75
g2
Ntp3638
Rp3639
(dp3640
g14
I00
sg32
I00
sS'placeholder'
p3641
g0
(g242
g2
Ntp3642
Rp3643
(dp3644
g14
I00
sg32
I00
sg95
I01
sg15
I00
sbsg15
I00
sg11
(lp3645
g3641
asbsg16
I10
sS'debugModules'
p3646
g0
(g19
g20
(lp3647
tp3648
Rp3649
(dp3650
g14
I00
sg32
I00
sg15
I00
sg33
I1
sbsg35
g3623
sS'fwkJobReports'
p3651
g0
(g19
g20
(lp3652
S'FrameworkJobReport'
p3653
atp3654
Rp3655
(dp3656
g14
I00
sg32
I00
sg15
I00
sg33
I1
sbsg11
(lp3657
g3627
aS'debugs'
p3658
ag3632
ag3637
aS'cerr_stats'
p3659
aS'warnings'
p3660
aS'default'
p3661
aS'statistics'
p3662
aS'cerr'
p3663
ag3653
aS'suppressWarning'
p3664
aS'errors'
p3665
aS'destinations'
p3666
ag3646
aS'infos'
p3667
aS'categories'
p3668
ag3651
asg3662
g0
(g19
g20
(lp3669
g3659
atp3670
Rp3671
(dp3672
g14
I00
sg32
I00
sg15
I00
sg33
I1
sbsg17
g18
sg3666
g0
(g19
g20
(lp3673
g3660
ag3665
ag3667
ag3658
ag3637
ag3663
atp3674
Rp3675
(dp3676
g14
I00
sg32
I00
sg15
I00
sg33
I1
sbsg3658
g0
(g75
g2
Ntp3677
Rp3678
(dp3679
g14
I00
sg32
I00
sg3641
g0
(g242
g2
Ntp3680
Rp3681
(dp3682
g14
I00
sg32
I00
sg95
I01
sg15
I00
sbsg15
I00
sg11
(lp3683
g3641
asbsg3660
g0
(g75
g2
Ntp3684
Rp3685
(dp3686
g14
I00
sg32
I00
sg3641
g0
(g242
g2
Ntp3687
Rp3688
(dp3689
g14
I00
sg32
I00
sg95
I01
sg15
I00
sbsg15
I00
sg11
(lp3690
g3641
asbsg3665
g0
(g75
g2
Ntp3691
Rp3692
(dp3693
g14
I00
sg32
I00
sg3641
g0
(g242
g2
Ntp3694
Rp3695
(dp3696
g14
I00
sg32
I00
sg95
I01
sg15
I00
sbsg15
I00
sg11
(lp3697
g3641
asbsg3653
g0
(g75
g2
Ntp3698
Rp3699
(dp3700
g14
I00
sg32
I00
sg15
I00
sg3661
g0
(g75
g2
Ntp3701
Rp3702
(dp3703
g14
I00
sg32
I00
sS'limit'
p3704
g0
(g1945
g2
Ntp3705
Rp3706
(dp3707
g14
I00
sg32
I00
sg95
I0
sg15
I00
sbsg15
I00
sg11
(lp3708
g3704
asbsS'FwkJob'
p3709
g0
(g75
g2
Ntp3710
Rp3711
(dp3712
g14
I00
sg32
I00
sg15
I00
sg3704
g0
(g1945
g2
Ntp3713
Rp3714
(dp3715
g14
I00
sg32
I00
sg95
I10000000
sg15
I00
sbsg11
(lp3716
S'optionalPSet'
p3717
ag3704
asg3717
g0
(g242
g2
Ntp3718
Rp3719
(dp3720
g14
I00
sg32
I00
sg95
I01
sg15
I00
sbsbsg11
(lp3721
g3661
ag3717
ag3709
asg3717
g0
(g242
g2
Ntp3722
Rp3723
(dp3724
g14
I00
sg32
I00
sg95
I01
sg15
I00
sbsbsg3664
g0
(g19
g20
(lp3725
tp3726
Rp3727
(dp3728
g14
I00
sg32
I00
sg15
I00
sg33
I1
sbsg3667
g0
(g75
g2
Ntp3729
Rp3730
(dp3731
g14
I00
sg32
I00
sg15
I00
sS'Root_NoDictionary'
p3732
g0
(g75
g2
Ntp3733
Rp3734
(dp3735
g14
I00
sg32
I00
sg15
I00
sg3704
g0
(g1945
g2
Ntp3736
Rp3737
(dp3738
g14
I00
sg32
I00
sg95
I0
sg15
I00
sbsg11
(lp3739
g3717
ag3704
asg3717
g0
(g242
g2
Ntp3740
Rp3741
(dp3742
g14
I00
sg32
I00
sg95
I01
sg15
I00
sbsbsg11
(lp3743
g3717
ag3732
ag3641
asg3717
g0
(g242
g2
Ntp3744
Rp3745
(dp3746
g14
I00
sg32
I00
sg95
I01
sg15
I00
sbsg3641
g0
(g242
g2
Ntp3747
Rp3748
(dp3749
g14
I00
sg32
I00
sg95
I01
sg15
I00
sbsbsg3668
g0
(g19
g20
(lp3750
g3709
aS'FwkReport'
p3751
aS'FwkSummary'
p3752
ag3732
atp3753
Rp3754
(dp3755
g14
I00
sg32
I00
sg15
I00
sg33
I1
sbsg15
I00
sg3659
g0
(g75
g2
Ntp3756
Rp3757
(dp3758
g14
I00
sg32
I00
sg15
I00
sg3717
g0
(g242
g2
Ntp3759
Rp3760
(dp3761
g14
I00
sg32
I00
sg95
I01
sg15
I00
sbsg11
(lp3762
S'threshold'
p3763
aS'output'
p3764
ag3717
asg3763
g0
(g91
g2
Ntp3765
Rp3766
(dp3767
g14
I00
sg32
I00
sg95
S'WARNING'
p3768
sg15
I00
sbsg3764
g0
(g91
g2
Ntp3769
Rp3770
(dp3771
g14
I00
sg32
I00
sg95
g3663
sg15
I00
sbsbsg3661
g0
(g75
g2
Ntp3772
Rp3773
(dp3774
g14
I00
sg32
I00
sg15
I00
sg11
(lp3775
sbsg3663
g0
(g75
g2
Ntp3776
Rp3777
(dp3778
g14
I00
sg32
I00
sS'noTimeStamps'
p3779
g0
(g242
g2
Ntp3780
Rp3781
(dp3782
g14
I00
sg32
I00
sg95
I00
sg15
I00
sbsg3751
g0
(g75
g2
Ntp3783
Rp3784
(dp3785
g14
I00
sg32
I00
sg15
I01
sS'reportEvery'
p3786
g0
(g1945
g2
Ntp3787
Rp3788
(dp3789
g14
I00
sg32
I00
sg95
I10000
sg15
I01
sbsg3704
g0
(g1945
g2
Ntp3790
Rp3791
(dp3792
g14
I00
sg32
I00
sg95
I10000000
sg15
I00
sbsg11
(lp3793
g3786
ag3717
ag3704
asg3717
g0
(g242
g2
Ntp3794
Rp3795
(dp3796
g14
I00
sg32
I00
sg95
I01
sg15
I00
sbsbsg15
I00
sg3661
g0
(g75
g2
Ntp3797
Rp3798
(dp3799
g14
I00
sg32
I00
sg3704
g0
(g1945
g2
Ntp3800
Rp3801
(dp3802
g14
I00
sg32
I00
sg95
I10000000
sg15
I00
sbsg15
I00
sg11
(lp3803
g3704
asbsg3732
g0
(g75
g2
Ntp3804
Rp3805
(dp3806
g14
I00
sg32
I00
sg15
I00
sg3704
g0
(g1945
g2
Ntp3807
Rp3808
(dp3809
g14
I00
sg32
I00
sg95
I0
sg15
I00
sbsg11
(lp3810
g3717
ag3704
asg3717
g0
(g242
g2
Ntp3811
Rp3812
(dp3813
g14
I00
sg32
I00
sg95
I01
sg15
I00
sbsbsS'INFO'
p3814
g0
(g75
g2
Ntp3815
Rp3816
(dp3817
g14
I00
sg32
I00
sg3704
g0
(g1945
g2
Ntp3818
Rp3819
(dp3820
g14
I00
sg32
I00
sg95
I0
sg15
I00
sbsg15
I00
sg11
(lp3821
g3704
asbsg3717
g0
(g242
g2
Ntp3822
Rp3823
(dp3824
g14
I00
sg32
I00
sg95
I01
sg15
I00
sbsg3709
g0
(g75
g2
Ntp3825
Rp3826
(dp3827
g14
I00
sg32
I00
sg15
I00
sg3704
g0
(g1945
g2
Ntp3828
Rp3829
(dp3830
g14
I00
sg32
I00
sg95
I0
sg15
I00
sbsg11
(lp3831
g3717
ag3704
asg3717
g0
(g242
g2
Ntp3832
Rp3833
(dp3834
g14
I00
sg32
I00
sg95
I01
sg15
I00
sbsbsg3752
g0
(g75
g2
Ntp3835
Rp3836
(dp3837
g14
I00
sg32
I00
sg15
I00
sg3786
g0
(g1945
g2
Ntp3838
Rp3839
(dp3840
g14
I00
sg32
I00
sg95
I1
sg15
I00
sbsg3704
g0
(g1945
g2
Ntp3841
Rp3842
(dp3843
g14
I00
sg32
I00
sg95
I10000000
sg15
I00
sbsg11
(lp3844
g3786
ag3717
ag3704
asg3717
g0
(g242
g2
Ntp3845
Rp3846
(dp3847
g14
I00
sg32
I00
sg95
I01
sg15
I00
sbsbsg11
(lp3848
g3814
ag3779
ag3751
ag3661
ag3732
ag3763
ag3709
ag3752
ag3717
asg3763
g0
(g91
g2
Ntp3849
Rp3850
(dp3851
g14
I00
sg32
I00
sg95
g3814
sg15
I00
sbsbsbsg3606
g2991
sS'_Process__services'
p3852
(dp3853
g3623
g3625
sS'DQMStore'
p3854
g0
(g2306
g2
Ntp3855
Rp3856
(dp3857
g11
(lp3858
S'referenceFileName'
p3859
aS'verbose'
p3860
aS'collateHistograms'
p3861
aS'enableMultiThread'
p3862
aS'forceResetOnBeginLumi'
p3863
aS'LSbasedMode'
p3864
aS'verboseQT'
p3865
asg14
I00
sg3860
g0
(g1945
g2
Ntp3866
Rp3867
(dp3868
g14
I00
sg32
I00
sg95
I0
sg15
I00
sbsg3861
g0
(g242
g2
Ntp3869
Rp3870
(dp3871
g14
I00
sg32
I00
sg95
I00
sg15
I00
sbsg3859
g0
(g91
g2
Ntp3872
Rp3873
(dp3874
g14
I00
sg32
I00
sg95
g67
sg15
I00
sbsg3862
g0
(g242
g2
Ntp3875
Rp3876
(dp3877
g14
I00
sg32
I00
sg95
I00
sg15
I00
sbsg3863
g0
(g242
g2
Ntp3878
Rp3879
(dp3880
g14
I00
sg32
I00
sg95
I00
sg15
I00
sbsg16
I10
sg3864
g0
(g242
g2
Ntp3881
Rp3882
(dp3883
g14
I00
sg32
I00
sg95
I00
sg15
I00
sbsg17
g18
sg3865
g0
(g1945
g2
Ntp3884
Rp3885
(dp3886
g14
I00
sg32
I00
sg95
I0
sg15
I00
sbsg35
g3854
sg15
I00
sbsg2327
g2329
sg2305
g2308
ssg3854
g3856
sS'CastorGeometryFromDBEP'
p3887
g0
(g7
g2
Ntp3888
Rp3889
(dp3890
g11
(lp3891
g2664
asg14
I00
sg15
I00
sg16
I40
sg17
g18
sg34
g3887
sg2664
g0
(g242
g2
Ntp3892
Rp3893
(dp3894
g14
I00
sg32
I01
sg95
I00
sg15
I00
sbsg35
g3887
sbsS'trackerGeometryDB'
p3895
g0
(g7
g2
Ntp3896
Rp3897
(dp3898
g11
(lp3899
g2321
aS'fromDDD'
p3900
ag2664
aS'alignmentsLabel'
p3901
asg14
I00
sg2321
g0
(g91
g2
Ntp3902
Rp3903
(dp3904
g14
I00
sg32
I01
sg95
g67
sg15
I00
sbsg15
I00
sg3901
g0
(g91
g2
Ntp3905
Rp3906
(dp3907
g14
I00
sg32
I01
sg95
g67
sg15
I00
sbsg17
g18
sg16
I40
sg34
g3895
sg3900
g0
(g242
g2
Ntp3908
Rp3909
(dp3910
g14
I00
sg32
I01
sg95
I00
sg15
I00
sbsg2664
g0
(g242
g2
Ntp3911
Rp3912
(dp3913
g14
I00
sg32
I01
sg95
I01
sg15
I00
sbsg35
S'TrackerDigiGeometryESModule'
p3914
sbsS'eegeom'
p3915
g0
(g2843
g2
Ntp3916
Rp3917
(dp3918
g11
(lp3919
S'iovIsRunNotTime'
p3920
aS'recordName'
p3921
aS'firstValid'
p3922
asg14
I00
sg15
I00
sg16
I6
sg3921
g0
(g91
g2
Ntp3923
Rp3924
(dp3925
g14
I00
sg32
I01
sg95
S'EcalMappingRcd'
p3926
sg15
I00
sbsg17
S'/cvmfs/cms.cern.ch/slc6_amd64_gcc530/cms/cmssw/CMSSW_8_0_12/python/Geometry/EcalMapping/EcalMappingRecord_cfi.py'
p3927
sg3922
g0
(cFWCore.ParameterSet.Types
vuint32
p3928
g20
(lp3929
I1
atp3930
Rp3931
(dp3932
g14
I00
sg32
I01
sg15
I00
sbsg34
g3915
sg3920
g0
(g242
g2
Ntp3933
Rp3934
(dp3935
g14
I00
sg32
I01
sg95
I01
sg15
I00
sbsg35
S'EmptyESSource'
p3936
sbsg2232
g209
sS'mvaEleID_Spring15_50ns_Trig_V1_wp80'
p3937
g0
(g75
g2
Ntp3938
Rp3939
(dp3940
g14
I00
sg32
I01
sg15
I01
sg226
g0
(g91
g2
Ntp3941
Rp3942
(dp3943
g14
I00
sg32
I01
sg95
S'mvaEleID-Spring15-50ns-Trig-V1-wp80'
p3944
sg15
I00
sbsg231
g0
(g73
g20
(lp3945
g0
(g75
g2
Ntp3946
Rp3947
(dp3948
g14
I00
sg32
I01
sg1983
g0
(g58
g2
Ntp3949
Rp3950
(dp3951
g14
I00
sg32
I01
sg15
I00
sg62
S'electronMVAValueMapProducer'
p3952
sg64
g67
sg66
S'ElectronMVAEstimatorRun2Spring15Trig50nsV1Values'
p3953
sbsg1989
g0
(g58
g2
Ntp3954
Rp3955
(dp3956
g14
I00
sg32
I01
sg15
I00
sg62
S'electronMVAValueMapProducer'
p3957
sg64
g67
sg66
S'ElectronMVAEstimatorRun2Spring15Trig50nsV1Categories'
p3958
sbsg236
g0
(g91
g2
Ntp3959
Rp3960
(dp3961
g14
I00
sg32
I01
sg95
g1998
sg15
I00
sbsg241
g0
(g242
g2
Ntp3962
Rp3963
(dp3964
g14
I00
sg32
I01
sg95
I01
sg15
I00
sbsg2002
g0
(g2003
g20
(lp3965
F0.981841
aF0.946762
aF0.79704
atp3966
Rp3967
(dp3968
g14
I00
sg32
I01
sg15
I00
sbsg246
g0
(g242
g2
Ntp3969
Rp3970
(dp3971
g14
I00
sg32
I01
sg95
I00
sg15
I00
sbsg11
(lp3972
g1983
ag1989
ag236
ag241
ag2002
ag246
asg15
I00
sbatp3973
Rp3974
(dp3975
g14
I00
sg32
I01
sg15
I00
sg33
I1
sbsg608
g0
(g242
g2
Ntp3976
Rp3977
(dp3978
g14
I00
sg32
I00
sg95
I01
sg15
I00
sbsg11
(lp3979
g226
ag231
ag608
asg34
g3937
sbsS'_Process__vpsets'
p3980
(dp3981
g205
g203
ssS'EcalTrigTowerConstituentsMapBuilder'
p3982
g0
(g7
g2
Ntp3983
Rp3984
(dp3985
g11
(lp3986
S'MapFile'
p3987
asg14
I00
sg15
I00
sg3987
g0
(g91
g2
Ntp3988
Rp3989
(dp3990
g14
I00
sg32
I00
sg95
S'Geometry/EcalMapping/data/EndCap_TTMap.txt'
p3991
sg15
I00
sbsg17
g18
sg16
I40
sg34
g3982
sg35
g3982
sbsS'siStripBackPlaneCorrectionDepESProducer'
p3992
g0
(g7
g2
Ntp3993
Rp3994
(dp3995
g11
(lp3996
S'LatencyRecord'
p3997
aS'BackPlaneCorrectionDeconvMode'
p3998
aS'BackPlaneCorrectionPeakMode'
p3999
asg14
I00
sg15
I00
sg16
I40
sg17
g18
sg3997
g0
(g75
g2
Ntp4000
Rp4001
(dp4002
g14
I00
sg32
I01
sg15
I00
sS'label'
p4003
g0
(g91
g2
Ntp4004
Rp4005
(dp4006
g14
I00
sg32
I00
sg95
g67
sg15
I00
sbsg2817
g0
(g91
g2
Ntp4007
Rp4008
(dp4009
g14
I00
sg32
I01
sg95
S'SiStripLatencyRcd'
p4010
sg15
I00
sbsg11
(lp4011
g2817
ag4003
asbsg3999
g0
(g75
g2
Ntp4012
Rp4013
(dp4014
g14
I00
sg32
I01
sg15
I00
sg4003
g0
(g91
g2
Ntp4015
Rp4016
(dp4017
g14
I00
sg32
I00
sg95
S'peak'
p4018
sg15
I00
sbsg2817
g0
(g91
g2
Ntp4019
Rp4020
(dp4021
g14
I00
sg32
I01
sg95
S'SiStripBackPlaneCorrectionRcd'
p4022
sg15
I00
sbsg11
(lp4023
g2817
ag4003
asbsg34
g3992
sg3998
g0
(g75
g2
Ntp4024
Rp4025
(dp4026
g14
I00
sg32
I01
sg15
I00
sg4003
g0
(g91
g2
Ntp4027
Rp4028
(dp4029
g14
I00
sg32
I00
sg95
S'deconvolution'
p4030
sg15
I00
sbsg2817
g0
(g91
g2
Ntp4031
Rp4032
(dp4033
g14
I00
sg32
I01
sg95
g4022
sg15
I00
sbsg11
(lp4034
g2817
ag4003
asbsg35
S'SiStripBackPlaneCorrectionDepESProducer'
p4035
sbsg2710
g2719
sg2763
g2765
sS'_Process__esprefers'
p4036
(dp4037
S'GlobalTag_prefer'
p4038
g0
(cFWCore.ParameterSet.Modules
ESPrefer
p4039
g2
Ntp4040
Rp4041
(dp4042
g11
(lp4043
sg14
I00
sg15
I00
sS'_targetLabel'
p4044
g2842
sg16
I73
sg17
g18
sg34
g4038
sg35
g2917
sbsS'es_prefer_hcalHardcode'
p4045
g0
(g4039
g2
Ntp4046
Rp4047
(dp4048
g11
(lp4049
sg14
I00
sg15
I00
sg4044
S'es_hardcode'
p4050
sg16
I73
sg17
g18
sg34
g4045
sg35
S'HcalHardcodeCalibrations'
p4051
sbssS'_Process__isStrict'
p4052
I00
sS'HepPDTESSource'
p4053
g0
(g2843
g2
Ntp4054
Rp4055
(dp4056
g11
(lp4057
S'pdtFileName'
p4058
asg14
I00
sg4058
g0
(g534
g2
Ntp4059
Rp4060
(dp4061
g14
I00
sg32
I01
sg95
S'SimGeneral/HepPDTESSource/data/pythiaparticle.tbl'
p4062
sg15
I00
sbsg15
I00
sg16
I4
sg17
S'/cvmfs/cms.cern.ch/slc6_amd64_gcc530/cms/cmssw/CMSSW_8_0_12/python/SimGeneral/HepPDTESSource/pythiapdt_cfi.py'
p4063
sg34
g4053
sg35
g4053
sbsS'_Process__outputmodules'
p4064
(dp4065
sS'_Process__analyzers'
p4066
(dp4067
g3606
g2991
sS'printGenParticleList'
p4068
g0
(g2989
g2
Ntp4069
Rp4070
(dp4071
g11
(lp4072
S'printVertex'
p4073
ag55
aS'maxEventsToPrint'
p4074
asg14
I00
sg15
I00
sg55
g0
(g58
g2
Ntp4075
Rp4076
(dp4077
g14
I00
sg32
I01
sg15
I00
sg62
g2699
sg64
g67
sg66
g67
sbsg17
g2703
sg34
g4068
sg16
I354
sg4073
g0
(g242
g2
Ntp4078
Rp4079
(dp4080
g14
I00
sg32
I00
sg95
I01
sg15
I00
sbsg4074
g0
(g1945
g2
Ntp4081
Rp4082
(dp4083
g14
I00
sg32
I00
sg95
I-1
sg15
I00
sbsg35
S'ParticleListDrawer'
p4084
sbssS'mvaEleID_PHYS14_PU20bx25_nonTrig_V1_wp80'
p4085
g0
(g75
g2
Ntp4086
Rp4087
(dp4088
g14
I00
sg32
I01
sg15
I01
sg226
g0
(g91
g2
Ntp4089
Rp4090
(dp4091
g14
I00
sg32
I01
sg95
S'mvaEleID-PHYS14-PU20bx25-nonTrig-V1-wp80'
p4092
sg15
I00
sbsg231
g0
(g73
g20
(lp4093
g0
(g75
g2
Ntp4094
Rp4095
(dp4096
g14
I00
sg32
I01
sg1983
g0
(g58
g2
Ntp4097
Rp4098
(dp4099
g14
I00
sg32
I01
sg15
I00
sg62
S'electronMVAValueMapProducer'
p4100
sg64
g67
sg66
S'ElectronMVAEstimatorRun2Phys14NonTrig25nsV1Values'
p4101
sbsg1989
g0
(g58
g2
Ntp4102
Rp4103
(dp4104
g14
I00
sg32
I01
sg15
I00
sg62
S'electronMVAValueMapProducer'
p4105
sg64
g67
sg66
S'ElectronMVAEstimatorRun2Phys14NonTrig25nsV1Categories'
p4106
sbsg236
g0
(g91
g2
Ntp4107
Rp4108
(dp4109
g14
I00
sg32
I01
sg95
g1998
sg15
I00
sbsg241
g0
(g242
g2
Ntp4110
Rp4111
(dp4112
g14
I00
sg32
I01
sg95
I01
sg15
I00
sbsg2002
g0
(g2003
g20
(lp4113
F-0.253
aF0.081
aF-0.081
aF0.965
aF0.917
aF0.683
atp4114
Rp4115
(dp4116
g14
I00
sg32
I01
sg15
I00
sbsg246
g0
(g242
g2
Ntp4117
Rp4118
(dp4119
g14
I00
sg32
I01
sg95
I00
sg15
I00
sbsg11
(lp4120
g1983
ag1989
ag236
ag241
ag2002
ag246
asg15
I00
sbatp4121
Rp4122
(dp4123
g14
I00
sg32
I01
sg15
I00
sg33
I1
sbsg608
g0
(g242
g2
Ntp4124
Rp4125
(dp4126
g14
I00
sg32
I00
sg95
I00
sg15
I00
sbsg11
(lp4127
g226
ag231
ag608
asg34
g4085
sbsg38
g41
sS'idealForDigiTrackerGeometry'
p4128
g0
(g7
g2
Ntp4129
Rp4130
(dp4131
g11
(lp4132
g2321
ag3900
ag2664
ag3901
asg14
I00
sg2321
g0
(g91
g2
Ntp4133
Rp4134
(dp4135
g14
I00
sg32
I01
sg95
S'idealForDigi'
p4136
sg15
I01
sbsg15
I01
sg3901
g0
(g91
g2
Ntp4137
Rp4138
(dp4139
g14
I00
sg32
I01
sg95
S'fakeForIdeal'
p4140
sg15
I01
sbsg17
S'/cvmfs/cms.cern.ch/slc6_amd64_gcc530/cms/cmssw/CMSSW_8_0_12/python/Geometry/TrackerGeometryBuilder/idealForDigiTrackerGeometryDB_cff.py'
p4141
sg16
I8
sg34
g4128
sg3900
g0
(g242
g2
Ntp4142
Rp4143
(dp4144
g14
I00
sg32
I01
sg95
I00
sg15
I00
sbsg2664
g0
(g242
g2
Ntp4145
Rp4146
(dp4147
g14
I00
sg32
I01
sg95
I00
sg15
I01
sbsg35
g3914
sbsS'_Process__looper'
p4148
NsS'_Process__paths'
p4149
g0
(g2972
g2973
(dp4150
g2980
g2983
stp4151
Rp4152
(dp4153
g2978
(lp4154
g2980
asbsg201
g174
sS'DTGeometryESModule'
p4155
g0
(g7
g2
Ntp4156
Rp4157
(dp4158
g11
(lp4159
g2321
ag3900
ag2664
ag3901
asg14
I00
sg2321
g0
(g91
g2
Ntp4160
Rp4161
(dp4162
g14
I00
sg32
I01
sg95
g67
sg15
I00
sbsg15
I00
sg3901
g0
(g91
g2
Ntp4163
Rp4164
(dp4165
g14
I00
sg32
I01
sg95
g67
sg15
I00
sbsg17
g18
sg16
I40
sg34
g4155
sg3900
g0
(g242
g2
Ntp4166
Rp4167
(dp4168
g14
I00
sg32
I01
sg95
I00
sg15
I00
sbsg2664
g0
(g242
g2
Ntp4169
Rp4170
(dp4171
g14
I00
sg32
I01
sg95
I01
sg15
I00
sbsg35
g4155
sbsS'VolumeBasedMagneticFieldESProducer'
p4172
g0
(g7
g2
Ntp4173
Rp4174
(dp4175
g11
(lp4176
S'valueOverride'
p4177
aS'debugBuilder'
p4178
ag4003
asg14
I00
sg4177
g0
(g1945
g2
Ntp4179
Rp4180
(dp4181
g14
I00
sg32
I01
sg95
I18268
sg15
I01
sbsg16
I40
sg17
g18
sg4003
g0
(g91
g2
Ntp4182
Rp4183
(dp4184
g14
I00
sg32
I00
sg95
g67
sg15
I00
sbsg4178
g0
(g242
g2
Ntp4185
Rp4186
(dp4187
g14
I00
sg32
I00
sg95
I00
sg15
I00
sbsg34
g4172
sg35
S'VolumeBasedMagneticFieldESProducerFromDB'
p4188
sg15
I01
sbsg2220
g2182
sS'CaloTopologyBuilder'
p4189
g0
(g7
g2
Ntp4190
Rp4191
(dp4192
g11
(lp4193
sg14
I00
sg15
I00
sg16
I40
sg17
g18
sg34
g4189
sg35
g4189
sbsS'mvaEleID_PHYS14_PU20bx25_nonTrig_V1_wp90'
p4194
g0
(g75
g2
Ntp4195
Rp4196
(dp4197
g14
I00
sg32
I01
sg15
I01
sg226
g0
(g91
g2
Ntp4198
Rp4199
(dp4200
g14
I00
sg32
I01
sg95
S'mvaEleID-PHYS14-PU20bx25-nonTrig-V1-wp90'
p4201
sg15
I00
sbsg231
g0
(g73
g20
(lp4202
g0
(g75
g2
Ntp4203
Rp4204
(dp4205
g14
I00
sg32
I01
sg1983
g0
(g58
g2
Ntp4206
Rp4207
(dp4208
g14
I00
sg32
I01
sg15
I00
sg62
S'electronMVAValueMapProducer'
p4209
sg64
g67
sg66
S'ElectronMVAEstimatorRun2Phys14NonTrig25nsV1Values'
p4210
sbsg1989
g0
(g58
g2
Ntp4211
Rp4212
(dp4213
g14
I00
sg32
I01
sg15
I00
sg62
S'electronMVAValueMapProducer'
p4214
sg64
g67
sg66
S'ElectronMVAEstimatorRun2Phys14NonTrig25nsV1Categories'
p4215
sbsg236
g0
(g91
g2
Ntp4216
Rp4217
(dp4218
g14
I00
sg32
I01
sg95
g1998
sg15
I00
sbsg241
g0
(g242
g2
Ntp4219
Rp4220
(dp4221
g14
I00
sg32
I01
sg95
I01
sg15
I00
sbsg2002
g0
(g2003
g20
(lp4222
F-0.483
aF-0.267
aF-0.323
aF0.933
aF0.825
aF0.337
atp4223
Rp4224
(dp4225
g14
I00
sg32
I01
sg15
I00
sbsg246
g0
(g242
g2
Ntp4226
Rp4227
(dp4228
g14
I00
sg32
I01
sg95
I00
sg15
I00
sbsg11
(lp4229
g1983
ag1989
ag236
ag241
ag2002
ag246
asg15
I00
sbatp4230
Rp4231
(dp4232
g14
I00
sg32
I01
sg15
I00
sg33
I1
sbsg608
g0
(g242
g2
Ntp4233
Rp4234
(dp4235
g14
I00
sg32
I00
sg95
I00
sg15
I00
sbsg11
(lp4236
g226
ag231
ag608
asg34
g4194
sbsS'SiStripRecHitMatcherESProducer'
p4237
g0
(g7
g2
Ntp4238
Rp4239
(dp4240
g11
(lp4241
S'PreFilter'
p4242
ag2966
aS'NSigmaInside'
p4243
asg14
I00
sg15
I00
sg17
g18
sg2966
g0
(g91
g2
Ntp4244
Rp4245
(dp4246
g14
I00
sg32
I01
sg95
S'StandardMatcher'
p4247
sg15
I00
sbsg4242
g0
(g242
g2
Ntp4248
Rp4249
(dp4250
g14
I00
sg32
I01
sg95
I00
sg15
I00
sbsg16
I40
sg4243
g0
(g252
g2
Ntp4251
Rp4252
(dp4253
g14
I00
sg32
I01
sg95
F3.0
sg15
I00
sbsg34
g4237
sg35
g4237
sbsS'_Process__psets'
p4254
(dp4255
g141
g105
sg2220
g2182
sg2118
g2080
sg2918
g2920
sg2016
g1973
sg172
g143
sg3937
g3939
sS'maxEvents'
p4256
g0
(g75
g2
Ntp4257
Rp4258
(dp4259
g14
I00
sg32
I00
sg15
I00
sg11
(lp4260
S'input'
p4261
asg34
g4256
sg4261
g0
(g1945
g2
Ntp4262
Rp4263
(dp4264
g14
I00
sg32
I00
sg95
I100
sg15
I00
sbsbsg103
g77
sg201
g174
sg2067
g2029
sg2169
g2131
sg4085
g4087
sg4194
g4196
ssS'_Process__essources'
p4265
(dp4266
g4053
g4055
sg4050
g0
(g2843
g2
Ntp4267
Rp4268
(dp4269
g11
(lp4270
S'HERecalibration'
p4271
ag2854
aS'GainWidthsForTrigPrims'
p4272
aS'HEreCalibCutoff'
p4273
aS'HFRecalibration'
p4274
aS'iLumi'
p4275
aS'testHFQIE10'
p4276
asg14
I00
sg15
I00
sg16
I18
sg4271
g0
(g242
g2
Ntp4277
Rp4278
(dp4279
g14
I00
sg32
I01
sg95
I00
sg15
I00
sbsg2854
g0
(g19
g20
(lp4280
S'GainWidths'
p4281
atp4282
Rp4283
(dp4284
g14
I00
sg32
I00
sg15
I00
sg33
I1
sbsg4272
g0
(g242
g2
Ntp4285
Rp4286
(dp4287
g14
I00
sg32
I01
sg95
I00
sg15
I00
sbsg4273
g0
(g252
g2
Ntp4288
Rp4289
(dp4290
g14
I00
sg32
I01
sg95
F20.0
sg15
I00
sbsg4274
g0
(g242
g2
Ntp4291
Rp4292
(dp4293
g14
I00
sg32
I01
sg95
I00
sg15
I00
sbsg17
S'/cvmfs/cms.cern.ch/slc6_amd64_gcc530/cms/cmssw/CMSSW_8_0_12/python/CalibCalorimetry/HcalPlugins/Hcal_Conditions_forGlobalTag_cff.py'
p4294
sg34
g4050
sg4275
g0
(g252
g2
Ntp4295
Rp4296
(dp4297
g14
I00
sg32
I01
sg95
F-1.0
sg15
I00
sbsg4276
g0
(g242
g2
Ntp4298
Rp4299
(dp4300
g14
I00
sg32
I01
sg95
I00
sg15
I00
sbsg35
g4051
sbsg3915
g3917
sg2842
g2845
ssg2304
g2287
sg2783
g2785
sg4256
g4258
sS'CSCGeometryESModule'
p4301
g0
(g7
g2
Ntp4302
Rp4303
(dp4304
g11
(lp4305
g2321
aS'useDDD'
p4306
aS'debugV'
p4307
aS'useGangedStripsInME1a'
p4308
ag3901
aS'useOnlyWiresInME1a'
p4309
aS'useRealWireGeometry'
p4310
aS'useCentreTIOffsets'
p4311
ag2664
asg14
I00
sg2321
g0
(g91
g2
Ntp4312
Rp4313
(dp4314
g14
I00
sg32
I01
sg95
g67
sg15
I00
sbsg15
I00
sg4307
g0
(g242
g2
Ntp4315
Rp4316
(dp4317
g14
I00
sg32
I00
sg95
I00
sg15
I00
sbsg17
g18
sg4308
g0
(g242
g2
Ntp4318
Rp4319
(dp4320
g14
I00
sg32
I01
sg95
I01
sg15
I00
sbsg3901
g0
(g91
g2
Ntp4321
Rp4322
(dp4323
g14
I00
sg32
I01
sg95
g67
sg15
I00
sbsg4309
g0
(g242
g2
Ntp4324
Rp4325
(dp4326
g14
I00
sg32
I01
sg95
I00
sg15
I00
sbsg4306
g0
(g242
g2
Ntp4327
Rp4328
(dp4329
g14
I00
sg32
I01
sg95
I00
sg15
I00
sbsg16
I40
sg4311
g0
(g242
g2
Ntp4330
Rp4331
(dp4332
g14
I00
sg32
I01
sg95
I00
sg15
I00
sbsg34
g4301
sg4310
g0
(g242
g2
Ntp4333
Rp4334
(dp4335
g14
I00
sg32
I01
sg95
I01
sg15
I00
sbsg2664
g0
(g242
g2
Ntp4336
Rp4337
(dp4338
g14
I00
sg32
I01
sg95
I01
sg15
I00
sbsg35
g4301
sbsS'EcalBarrelGeometryFromDBEP'
p4339
g0
(g7
g2
Ntp4340
Rp4341
(dp4342
g11
(lp4343
g2664
asg14
I00
sg15
I01
sg16
I40
sg17
g18
sg34
g4339
sg2664
g0
(g242
g2
Ntp4344
Rp4345
(dp4346
g14
I00
sg32
I01
sg95
I01
sg15
I01
sbsg35
g4339
sbsS'trackerNumberingGeometryDB'
p4347
g0
(g7
g2
Ntp4348
Rp4349
(dp4350
g11
(lp4351
g2321
ag3900
asg14
I00
sg2321
g0
(g91
g2
Ntp4352
Rp4353
(dp4354
g14
I00
sg32
I01
sg95
g67
sg15
I00
sbsg15
I00
sg16
I40
sg17
g18
sg34
g4347
sg3900
g0
(g242
g2
Ntp4355
Rp4356
(dp4357
g14
I00
sg32
I01
sg95
I00
sg15
I00
sbsg35
S'TrackerGeometricDetESModule'
p4358
sbsg2278
g2235
sS'_Process__name'
p4359
S'Demo'
p4360
sg4038
g4041
sg4050
g4268
sS'_cloneToObjectDict'
p4361
(dp4362
I140651934610256
g0
(g7
g2
Ntp4363
Rp4364
(dp4365
g11
(lp4366
g2321
asg14
I00
sg2321
g0
(g91
g2
Ntp4367
Rp4368
(dp4369
g14
I00
sg32
I01
sg95
g67
sg15
I00
sbsg15
I00
sg16
I40
sg17
g18
sg34
S'trackerTopology'
p4370
sg35
S'TrackerTopologyEP'
p4371
sbsI140651934581648
g4303
sI140651934434256
g4087
sI140651934281040
g0
(g7
g2
Ntp4372
Rp4373
(dp4374
g11
(lp4375
sg14
I00
sg15
I00
sg16
I40
sg17
g18
sg34
S'sistripconn'
p4376
sg35
S'SiStripConnectivity'
p4377
sbsI140651934610448
g3612
sI140651933975632
g2235
sI140651934315664
g0
(g7
g2
Ntp4378
Rp4379
(dp4380
g11
(lp4381
g2321
aS'PrintDebugOutput'
p4382
aS'ThresholdForReducedGranularity'
p4383
aS'UseEmptyRunInfo'
p4384
aS'ReduceGranularity'
p4385
ag2812
asg14
I00
sg2321
g0
(g91
g2
Ntp4386
Rp4387
(dp4388
g14
I00
sg32
I01
sg95
g67
sg15
I00
sbsg15
I01
sg16
I40
sg17
g18
sg4383
g0
(g252
g2
Ntp4389
Rp4390
(dp4391
g14
I00
sg32
I01
sg95
F0.3
sg15
I00
sbsg34
S'siStripQualityESProducer'
p4392
sg4384
g0
(g242
g2
Ntp4393
Rp4394
(dp4395
g14
I00
sg32
I01
sg95
I00
sg15
I00
sbsg4385
g0
(g242
g2
Ntp4396
Rp4397
(dp4398
g14
I00
sg32
I01
sg95
I00
sg15
I00
sbsg2812
g0
(g73
g20
(lp4399
g0
(g75
g2
Ntp4400
Rp4401
(dp4402
g14
I00
sg32
I01
sg15
I00
sg2817
g0
(g91
g2
Ntp4403
Rp4404
(dp4405
g14
I00
sg32
I01
sg95
S'SiStripDetVOffRcd'
p4406
sg15
I00
sbsg2822
g0
(g91
g2
Ntp4407
Rp4408
(dp4409
g14
I00
sg32
I01
sg95
g67
sg15
I00
sbsg11
(lp4410
g2817
ag2822
asbag0
(g75
g2
Ntp4411
Rp4412
(dp4413
g14
I00
sg32
I01
sg15
I00
sg2817
g0
(g91
g2
Ntp4414
Rp4415
(dp4416
g14
I00
sg32
I01
sg95
S'SiStripDetCablingRcd'
p4417
sg15
I00
sbsg2822
g0
(g91
g2
Ntp4418
Rp4419
(dp4420
g14
I00
sg32
I01
sg95
g67
sg15
I00
sbsg11
(lp4421
g2817
ag2822
asbag0
(g75
g2
Ntp4422
Rp4423
(dp4424
g14
I00
sg32
I01
sg15
I00
sg2817
g0
(g91
g2
Ntp4425
Rp4426
(dp4427
g14
I00
sg32
I01
sg95
S'RunInfoRcd'
p4428
sg15
I00
sbsg2822
g0
(g91
g2
Ntp4429
Rp4430
(dp4431
g14
I00
sg32
I01
sg95
g67
sg15
I00
sbsg11
(lp4432
g2817
ag2822
asbag0
(g75
g2
Ntp4433
Rp4434
(dp4435
g14
I00
sg32
I01
sg15
I00
sg2817
g0
(g91
g2
Ntp4436
Rp4437
(dp4438
g14
I00
sg32
I01
sg95
S'SiStripBadChannelRcd'
p4439
sg15
I00
sbsg2822
g0
(g91
g2
Ntp4440
Rp4441
(dp4442
g14
I00
sg32
I01
sg95
g67
sg15
I00
sbsg11
(lp4443
g2817
ag2822
asbag0
(g75
g2
Ntp4444
Rp4445
(dp4446
g14
I00
sg32
I01
sg15
I00
sg2817
g0
(g91
g2
Ntp4447
Rp4448
(dp4449
g14
I00
sg32
I01
sg95
S'SiStripBadFiberRcd'
p4450
sg15
I00
sbsg2822
g0
(g91
g2
Ntp4451
Rp4452
(dp4453
g14
I00
sg32
I01
sg95
g67
sg15
I00
sbsg11
(lp4454
g2817
ag2822
asbag0
(g75
g2
Ntp4455
Rp4456
(dp4457
g14
I00
sg32
I01
sg15
I00
sg2817
g0
(g91
g2
Ntp4458
Rp4459
(dp4460
g14
I00
sg32
I01
sg95
S'SiStripBadModuleRcd'
p4461
sg15
I00
sbsg2822
g0
(g91
g2
Ntp4462
Rp4463
(dp4464
g14
I00
sg32
I01
sg95
g67
sg15
I00
sbsg11
(lp4465
g2817
ag2822
asbag0
(g75
g2
Ntp4466
Rp4467
(dp4468
g14
I00
sg32
I01
sg15
I00
sg2817
g0
(g91
g2
Ntp4469
Rp4470
(dp4471
g14
I00
sg32
I01
sg95
S'SiStripBadStripRcd'
p4472
sg15
I00
sbsg2822
g0
(g91
g2
Ntp4473
Rp4474
(dp4475
g14
I00
sg32
I01
sg95
g67
sg15
I00
sbsg11
(lp4476
g2817
ag2822
asbatp4477
Rp4478
(dp4479
g14
I00
sg32
I01
sg15
I00
sg33
I1
sbsg35
S'SiStripQualityESProducer'
p4480
sg4382
g0
(g242
g2
Ntp4481
Rp4482
(dp4483
g14
I00
sg32
I01
sg95
I00
sg15
I00
sbsbsI140651934700112
g0
(g7
g2
Ntp4484
Rp4485
(dp4486
g11
(lp4487
g2321
ag4306
ag4307
ag4308
ag3901
ag4309
ag4310
ag4311
ag2664
asg14
I00
sg2321
g0
(g91
g2
Ntp4488
Rp4489
(dp4490
g14
I00
sg32
I01
sg95
g4136
sg15
I01
sbsg15
I01
sg4307
g0
(g242
g2
Ntp4491
Rp4492
(dp4493
g14
I00
sg32
I00
sg95
I00
sg15
I00
sbsg17
S'/cvmfs/cms.cern.ch/slc6_amd64_gcc530/cms/cmssw/CMSSW_8_0_12/python/Geometry/CSCGeometryBuilder/idealForDigiCscGeometryDB_cff.py'
p4494
sg4308
g0
(g242
g2
Ntp4495
Rp4496
(dp4497
g14
I00
sg32
I01
sg95
I01
sg15
I00
sbsg3901
g0
(g91
g2
Ntp4498
Rp4499
(dp4500
g14
I00
sg32
I01
sg95
g4140
sg15
I01
sbsg4309
g0
(g242
g2
Ntp4501
Rp4502
(dp4503
g14
I00
sg32
I01
sg95
I00
sg15
I00
sbsg4306
g0
(g242
g2
Ntp4504
Rp4505
(dp4506
g14
I00
sg32
I01
sg95
I00
sg15
I00
sbsg16
I8
sg4311
g0
(g242
g2
Ntp4507
Rp4508
(dp4509
g14
I00
sg32
I01
sg95
I00
sg15
I00
sbsg34
S'idealForDigiCSCGeometry'
p4510
sg4310
g0
(g242
g2
Ntp4511
Rp4512
(dp4513
g14
I00
sg32
I01
sg95
I01
sg15
I00
sbsg2664
g0
(g242
g2
Ntp4514
Rp4515
(dp4516
g14
I00
sg32
I01
sg95
I00
sg15
I01
sbsg35
g4301
sbsI140651934647568
g0
(g7
g2
Ntp4517
Rp4518
(dp4519
g11
(lp4520
g2664
asg14
I00
sg15
I00
sg16
I40
sg17
g18
sg34
S'ZdcGeometryFromDBEP'
p4521
sg2664
g0
(g242
g2
Ntp4522
Rp4523
(dp4524
g14
I00
sg32
I01
sg95
I00
sg15
I00
sbsg35
g4521
sbsI140651934278416
g0
(g7
g2
Ntp4525
Rp4526
(dp4527
g11
(lp4528
g3997
aS'LorentzAngleDeconvMode'
p4529
aS'LorentzAnglePeakMode'
p4530
asg14
I00
sg15
I00
sg16
I40
sg17
g18
sg3997
g0
(g75
g2
Ntp4531
Rp4532
(dp4533
g14
I00
sg32
I01
sg15
I00
sg4003
g0
(g91
g2
Ntp4534
Rp4535
(dp4536
g14
I00
sg32
I00
sg95
g67
sg15
I00
sbsg2817
g0
(g91
g2
Ntp4537
Rp4538
(dp4539
g14
I00
sg32
I01
sg95
g4010
sg15
I00
sbsg11
(lp4540
g2817
ag4003
asbsg34
S'siStripLorentzAngleDepESProducer'
p4541
sg4530
g0
(g75
g2
Ntp4542
Rp4543
(dp4544
g14
I00
sg32
I01
sg15
I00
sg4003
g0
(g91
g2
Ntp4545
Rp4546
(dp4547
g14
I00
sg32
I00
sg95
g4018
sg15
I00
sbsg2817
g0
(g91
g2
Ntp4548
Rp4549
(dp4550
g14
I00
sg32
I01
sg95
S'SiStripLorentzAngleRcd'
p4551
sg15
I00
sbsg11
(lp4552
g2817
ag4003
asbsg35
S'SiStripLorentzAngleDepESProducer'
p4553
sg4529
g0
(g75
g2
Ntp4554
Rp4555
(dp4556
g14
I00
sg32
I01
sg15
I00
sg4003
g0
(g91
g2
Ntp4557
Rp4558
(dp4559
g14
I00
sg32
I00
sg95
g4030
sg15
I00
sbsg2817
g0
(g91
g2
Ntp4560
Rp4561
(dp4562
g14
I00
sg32
I01
sg95
g4551
sg15
I00
sbsg11
(lp4563
g2817
ag4003
asbsbsI140651934648208
g3984
sI140651934436752
g2029
sI140651934610832
g4191
sI140651934700944
g0
(g7
g2
Ntp4564
Rp4565
(dp4566
g11
(lp4567
g2321
ag3900
ag2664
ag3901
asg14
I00
sg2321
g0
(g91
g2
Ntp4568
Rp4569
(dp4570
g14
I00
sg32
I01
sg95
g4136
sg15
I01
sbsg15
I01
sg3901
g0
(g91
g2
Ntp4571
Rp4572
(dp4573
g14
I00
sg32
I01
sg95
g4140
sg15
I01
sbsg17
S'/cvmfs/cms.cern.ch/slc6_amd64_gcc530/cms/cmssw/CMSSW_8_0_12/python/Geometry/DTGeometryBuilder/idealForDigiDtGeometryDB_cff.py'
p4574
sg16
I8
sg34
S'idealForDigiDTGeometry'
p4575
sg3900
g0
(g242
g2
Ntp4576
Rp4577
(dp4578
g14
I00
sg32
I01
sg95
I00
sg15
I00
sbsg2664
g0
(g242
g2
Ntp4579
Rp4580
(dp4581
g14
I00
sg32
I01
sg95
I00
sg15
I01
sbsg35
g4155
sbsI140651934279120
g3994
sI140651934647888
g3889
sI140651934279440
g0
(g7
g2
Ntp4582
Rp4583
(dp4584
g11
(lp4585
S'ComponentType'
p4586
ag2966
aS'parameters'
p4587
asg14
I00
sg15
I00
sg4587
g0
(g75
g2
Ntp4588
Rp4589
(dp4590
g14
I00
sg32
I01
sg15
I00
sg11
(lp4591
sbsg16
I40
sg2966
g0
(g91
g2
Ntp4592
Rp4593
(dp4594
g14
I00
sg32
I01
sg95
S'stripCPE'
p4595
sg15
I00
sbsg4586
g0
(g91
g2
Ntp4596
Rp4597
(dp4598
g14
I00
sg32
I01
sg95
S'SimpleStripCPE'
p4599
sg15
I00
sbsg17
g18
sg34
S'stripCPEESProducer'
p4600
sg35
S'StripCPEESProducer'
p4601
sbsI140651933836688
g2688
sI140651934226192
g0
(g7
g2
Ntp4602
Rp4603
(dp4604
g11
(lp4605
S'file'
p4606
aS'dump'
p4607
asg14
I00
sg15
I00
sg4607
g0
(g19
g20
(lp4608
g67
atp4609
Rp4610
(dp4611
g14
I00
sg32
I00
sg15
I00
sg33
I1
sbsg16
I40
sg17
g18
sg4606
g0
(g91
g2
Ntp4612
Rp4613
(dp4614
g14
I00
sg32
I00
sg95
g67
sg15
I00
sbsg34
S'hcal_db_producer'
p4615
sg35
S'HcalDbProducer'
p4616
sbsI140651934315152
g4055
sI140651934701392
g2963
sI140651934279568
g0
(g7
g2
Ntp4617
Rp4618
(dp4619
g11
(lp4620
g4586
ag2966
ag4587
asg14
I00
sg15
I01
sg4587
g0
(g75
g2
Ntp4621
Rp4622
(dp4623
g14
I00
sg32
I01
sS'maxChgOneMIP'
p4624
g0
(g252
g2
Ntp4625
Rp4626
(dp4627
g14
I00
sg32
I01
sg95
F6000.0
sg15
I00
sbsS'mLC_P2'
p4628
g0
(g252
g2
Ntp4629
Rp4630
(dp4631
g14
I00
sg32
I01
sg95
F0.3
sg15
I00
sbsS'mLC_P1'
p4632
g0
(g252
g2
Ntp4633
Rp4634
(dp4635
g14
I00
sg32
I01
sg95
F0.618
sg15
I00
sbsS'mLC_P0'
p4636
g0
(g252
g2
Ntp4637
Rp4638
(dp4639
g14
I00
sg32
I01
sg95
F-0.326
sg15
I00
sbsS'useLegacyError'
p4640
g0
(g242
g2
Ntp4641
Rp4642
(dp4643
g14
I00
sg32
I01
sg95
I00
sg15
I00
sbsS'mTIB_P1'
p4644
g0
(g252
g2
Ntp4645
Rp4646
(dp4647
g14
I00
sg32
I01
sg95
F0.202
sg15
I00
sbsS'mTEC_P1'
p4648
g0
(g252
g2
Ntp4649
Rp4650
(dp4651
g14
I00
sg32
I01
sg95
F0.471
sg15
I00
sbsS'mTEC_P0'
p4652
g0
(g252
g2
Ntp4653
Rp4654
(dp4655
g14
I00
sg32
I01
sg95
F-1.885
sg15
I00
sbsS'mTOB_P0'
p4656
g0
(g252
g2
Ntp4657
Rp4658
(dp4659
g14
I00
sg32
I01
sg95
F-1.026
sg15
I00
sbsS'mTOB_P1'
p4660
g0
(g252
g2
Ntp4661
Rp4662
(dp4663
g14
I00
sg32
I01
sg95
F0.253
sg15
I00
sbsS'mTIB_P0'
p4664
g0
(g252
g2
Ntp4665
Rp4666
(dp4667
g14
I00
sg32
I01
sg95
F-0.742
sg15
I00
sbsg11
(lp4668
g4624
ag4628
ag4632
ag4636
ag4640
ag4648
ag4652
ag4656
ag4660
ag4664
ag4644
aS'mTID_P0'
p4669
aS'mTID_P1'
p4670
asg4669
g0
(g252
g2
Ntp4671
Rp4672
(dp4673
g14
I00
sg32
I01
sg95
F-1.427
sg15
I00
sbsg4670
g0
(g252
g2
Ntp4674
Rp4675
(dp4676
g14
I00
sg32
I01
sg95
F0.433
sg15
I00
sbsg15
I00
sbsg16
I4
sg2966
g0
(g91
g2
Ntp4677
Rp4678
(dp4679
g14
I00
sg32
I01
sg95
S'StripCPEfromTrackAngle'
p4680
sg15
I00
sbsg4586
g0
(g91
g2
Ntp4681
Rp4682
(dp4683
g14
I00
sg32
I01
sg95
g4680
sg15
I00
sbsg17
S'/cvmfs/cms.cern.ch/slc6_amd64_gcc530/cms/cmssw/CMSSW_8_0_12/python/RecoLocalTracker/SiStripRecHitConverter/StripCPEfromTrackAngle_cfi.py'
p4684
sg34
S'StripCPEfromTrackAngleESProducer'
p4685
sg35
g4601
sbsI140651933943760
g3939
sI140651934394448
g4258
sI140651934433616
g77
sI140651934434896
g4196
sI140651934611664
g3617
sI140651934435472
g105
sI140651934226704
g4268
sI140651934611792
g0
(g7
g2
Ntp4686
Rp4687
(dp4688
g11
(lp4689
g2664
asg14
I00
sg15
I01
sg16
I40
sg17
g18
sg34
S'EcalPreshowerGeometryFromDBEP'
p4690
sg2664
g0
(g242
g2
Ntp4691
Rp4692
(dp4693
g14
I00
sg32
I01
sg95
I01
sg15
I01
sbsg35
g4690
sbsI140651933874832
g2991
sI140651934611920
g4341
sI140651934648912
g3917
sI140651934392656
g2785
sI140651933836624
g2765
sI140651934702032
g4174
sI140651934649936
g4130
sI140651934224976
g2845
sI140651934436112
g2080
sI140651933945552
g2131
sI140651933777232
g2719
sI140651933875088
g4070
sI140651934702544
g0
(g7
g2
Ntp4694
Rp4695
(dp4696
g11
(lp4697
S'version'
p4698
ag4177
ag4003
asg14
I00
sg15
I01
sg16
I40
sg17
g18
sg4003
g0
(g91
g2
Ntp4699
Rp4700
(dp4701
g14
I00
sg32
I00
sg95
S'ParabolicMf'
p4702
sg15
I01
sbsg4698
g0
(g91
g2
Ntp4703
Rp4704
(dp4705
g14
I00
sg32
I01
sg95
S'Parabolic'
p4706
sg15
I00
sbsg4177
g0
(g1945
g2
Ntp4707
Rp4708
(dp4709
g14
I00
sg32
I01
sg95
I18268
sg15
I01
sbsg34
S'ParabolicParametrizedMagneticFieldProducer'
p4710
sg35
S'AutoParametrizedMagneticFieldProducer'
p4711
sbsI140651934612496
g0
(g7
g2
Ntp4712
Rp4713
(dp4714
g11
(lp4715
g2664
ag2665
asg14
I00
sg15
I01
sg16
I40
sg17
g18
sg2665
g0
(g75
g2
Ntp4716
Rp4717
(dp4718
g14
I00
sg32
I01
sg15
I00
sg2669
g0
(g1945
g2
Ntp4719
Rp4720
(dp4721
g14
I00
sg32
I01
sg95
I3
sg15
I00
sbsg2673
g0
(g1945
g2
Ntp4722
Rp4723
(dp4724
g14
I00
sg32
I01
sg95
I2
sg15
I00
sbsg11
(lp4725
g2669
ag2673
ag2678
asg2678
g0
(g91
g2
Ntp4726
Rp4727
(dp4728
g14
I00
sg32
I01
sg95
g2682
sg15
I00
sbsbsg34
S'HcalGeometryFromDBEP'
p4729
sg2664
g0
(g242
g2
Ntp4730
Rp4731
(dp4732
g14
I00
sg32
I01
sg95
I01
sg15
I01
sbsg35
g4729
sbsI140651934315408
g2809
sI140651934649424
g2318
sI140651933943120
g2920
sI140651933944912
g2182
sI140651934280912
g4239
sI140651934395664
g209
sI140651934611280
g9
sI140651934649744
g0
(g7
g2
Ntp4733
Rp4734
(dp4735
g11
(lp4736
g2321
asg14
I00
sg2321
g0
(g91
g2
Ntp4737
Rp4738
(dp4739
g14
I00
sg32
I01
sg95
g67
sg15
I00
sbsg15
I00
sg16
I40
sg17
g18
sg34
S'hcalDDDRecConstants'
p4740
sg35
S'HcalDDDRecConstantsESModule'
p4741
sbsI140651933975696
g41
sI140651934613008
g0
(g7
g2
Ntp4742
Rp4743
(dp4744
g11
(lp4745
sg14
I00
sg15
I00
sg16
I40
sg17
g18
sg34
S'HcalAlignmentEP'
p4746
sg35
g4746
sbsI140651934226768
g4047
sI140651934584400
g4157
sI140651933941840
g1973
sI140651934281424
g4041
sI140651934226000
g0
(g7
g2
Ntp4747
Rp4748
(dp4749
g11
(lp4750
sg14
I00
sg15
I00
sg16
I40
sg17
g18
sg34
S'EcalLaserCorrectionService'
p4751
sg35
g4751
sbsI140651933701392
g2791
sI140651934228304
g0
(g7
g2
Ntp4752
Rp4753
(dp4754
g11
(lp4755
S'printDebug'
p4756
ag2321
aS'APVGain'
p4757
aS'AutomaticNormalization'
p4758
asg14
I00
sg2321
g0
(g91
g2
Ntp4759
Rp4760
(dp4761
g14
I00
sg32
I01
sg95
g67
sg15
I00
sbsg15
I00
sg4758
g0
(g242
g2
Ntp4762
Rp4763
(dp4764
g14
I00
sg32
I01
sg95
I00
sg15
I00
sbsg16
I40
sg4756
g0
(g242
g2
Ntp4765
Rp4766
(dp4767
g14
I00
sg32
I00
sg95
I00
sg15
I00
sbsg17
g18
sg4757
g0
(g73
g20
(lp4768
g0
(g75
g2
Ntp4769
Rp4770
(dp4771
g14
I00
sg32
I01
sg15
I00
sS'Label'
p4772
g0
(g91
g2
Ntp4773
Rp4774
(dp4775
g14
I00
sg32
I00
sg95
g67
sg15
I00
sbsS'Record'
p4776
g0
(g91
g2
Ntp4777
Rp4778
(dp4779
g14
I00
sg32
I01
sg95
S'SiStripApvGainRcd'
p4780
sg15
I00
sbsS'NormalizationFactor'
p4781
g0
(g252
g2
Ntp4782
Rp4783
(dp4784
g14
I00
sg32
I00
sg95
F1.0
sg15
I00
sbsg11
(lp4785
g4776
ag4781
ag4772
asbag0
(g75
g2
Ntp4786
Rp4787
(dp4788
g14
I00
sg32
I01
sg15
I00
sg4772
g0
(g91
g2
Ntp4789
Rp4790
(dp4791
g14
I00
sg32
I00
sg95
g67
sg15
I00
sbsg4776
g0
(g91
g2
Ntp4792
Rp4793
(dp4794
g14
I00
sg32
I01
sg95
S'SiStripApvGain2Rcd'
p4795
sg15
I00
sbsg4781
g0
(g252
g2
Ntp4796
Rp4797
(dp4798
g14
I00
sg32
I00
sg95
F1.0
sg15
I00
sbsg11
(lp4799
g4776
ag4781
ag4772
asbatp4800
Rp4801
(dp4802
g14
I00
sg32
I01
sg15
I00
sg33
I1
sbsg34
S'siStripGainESProducer'
p4803
sg35
S'SiStripGainESProducer'
p4804
sbsI140651934583760
g0
(g7
g2
Ntp4805
Rp4806
(dp4807
g11
(lp4808
g4306
aS'compatibiltyWith11'
p4809
asg14
I00
sg15
I00
sg16
I40
sg17
g18
sg4306
g0
(g242
g2
Ntp4810
Rp4811
(dp4812
g14
I00
sg32
I00
sg95
I00
sg15
I00
sbsg4809
g0
(g242
g2
Ntp4813
Rp4814
(dp4815
g14
I00
sg32
I00
sg95
I01
sg15
I00
sbsg34
S'RPCGeometryESModule'
p4816
sg35
g4816
sbsI140651933944272
g174
sI140651934584784
g4349
sI140651934646352
g2661
sI140651933875216
g2983
sI140651934699856
g0
(g7
g2
Ntp4817
Rp4818
(dp4819
g11
(lp4820
g2321
asg14
I00
sg2321
g0
(g91
g2
Ntp4821
Rp4822
(dp4823
g14
I00
sg32
I01
sg95
g4140
sg15
I01
sbsg15
I01
sg16
I5
sg17
S'/cvmfs/cms.cern.ch/slc6_amd64_gcc530/cms/cmssw/CMSSW_8_0_12/python/Alignment/CommonAlignmentProducer/fakeForIdealAlignmentProducer_cfi.py'
p4824
sg34
S'fakeForIdealAlignment'
p4825
sg35
S'FakeAlignmentProducer'
p4826
sbsI140651935156456
g203
sI140651934648656
g0
(g7
g2
Ntp4827
Rp4828
(dp4829
g11
(lp4830
sg14
I00
sg15
I00
sg16
I40
sg17
g18
sg34
S'EcalElectronicsMappingBuilder'
p4831
sg35
g4831
sbsI140651934609872
g3897
sI140651934646864
g0
(g7
g2
Ntp4832
Rp4833
(dp4834
g11
(lp4835
S'Exclude'
p4836
ag2321
asg14
I00
sg2321
g0
(g91
g2
Ntp4837
Rp4838
(dp4839
g14
I00
sg32
I01
sg95
g67
sg15
I00
sbsg15
I00
sg16
I40
sg17
g18
sg34
S'hcalTopologyIdeal'
p4840
sg4836
g0
(g91
g2
Ntp4841
Rp4842
(dp4843
g14
I00
sg32
I00
sg95
g67
sg15
I00
sbsg35
S'HcalTopologyIdealEP'
p4844
sbsI140651934281680
g0
(g7
g2
Ntp4845
Rp4846
(dp4847
g11
(lp4848
sg14
I00
sg15
I00
sg16
I40
sg17
g18
sg34
S'CastorDbProducer'
p4849
sg35
g4849
sbsI140651934610064
g0
(g7
g2
Ntp4850
Rp4851
(dp4852
g11
(lp4853
sg14
I00
sg15
I00
sg16
I40
sg17
g18
sg34
S'GlobalTrackingGeometryESProducer'
p4854
sg35
g4854
sbsI140651933942480
g143
sI140651934610128
g0
(g7
g2
Ntp4855
Rp4856
(dp4857
g11
(lp4858
sg14
I00
sg15
I00
sg16
I40
sg17
g18
sg34
S'TrackerRecoGeometryESProducer'
p4859
sg35
g4859
sbsI140651933974608
g52
sI140651934647056
g0
(g7
g2
Ntp4860
Rp4861
(dp4862
g11
(lp4863
sg14
I00
sg15
I00
sg16
I40
sg17
g18
sg34
S'CaloTowerTopologyEP'
p4864
sg35
g4864
sbssg4803
g4753
sg4816
g4806
sg4376
g4373
sg4521
g4518
sg4859
g4856
sg2169
g2131
sg4541
g4526
sg4864
g4861
sg4710
g4695
sg4600
g4583
sg4370
g4364
sg4068
g4070
sg4729
g4713
sg141
g105
sg2118
g2080
sg4045
g4047
sg4831
g4828
sg4685
g4618
sS'_Process__aliases'
p4865
(dp4866
sg4854
g4851
sg4751
g4748
sg205
g203
sg172
g143
sg4746
g4743
sg4690
g4687
sg4740
g4734
sg4849
g4846
sg103
g77
sg4510
g4485
sS'_Process__subProcesses'
p4867
(lp4868
sg4615
g4603
sg2016
g1973
sg4840
g4833
sS'_Process__schedule'
p4869
Nsg4392
g4379
sg4575
g4565
sS'_Process__modifiers'
p4870
(tsS'_Process__filters'
p4871
(dp4872
sS'_Process__esproducers'
p4873
(dp4874
g6
g9
sg4751
g4748
sg4859
g4856
sg4172
g4174
sg4685
g4618
sg3887
g3889
sg4189
g4191
sg4854
g4851
sg3895
g3897
sg4541
g4526
sg4840
g4833
sg4746
g4743
sg4690
g4687
sg4849
g4846
sg4740
g4734
sg4301
g4303
sg4339
g4341
sg4347
g4349
sg4831
g4828
sg3982
g3984
sg4510
g4485
sg2659
g2661
sg3992
g3994
sg4615
g4603
sg4803
g4753
sg4237
g4239
sg4816
g4806
sg4575
g4565
sg4521
g4518
sg4155
g4157
sg4392
g4379
sg4376
g4373
sg2807
g2809
sg4128
g4130
sg4864
g4861
sg4710
g4695
sg2961
g2963
sg4600
g4583
sg2316
g2318
sg3610
g3612
sg4370
g4364
sg3615
g3617
sg4825
g4818
sg4729
g4713
ssS'_Process__partialschedules'
p4875
(dp4876
sg4825
g4818
sg2737
g2791
sb.