ccopy_reg
_reconstructor
p0
(cFWCore.ParameterSet.Config
Process
p1
c__builtin__
object
p2
Ntp3
Rp4
(dp5
S'CaloGeometryBuilder'
p6
g0
(cFWCore.ParameterSet.Modules
ESProducer
p7
g2
Ntp8
Rp9
(dp10
S'_Parameterizable__parameterNames'
p11
(lp12
S'SelectedCalos'
p13
asS'_isFrozen'
p14
I00
sS'_isModified'
p15
I00
sS'_lineNumber'
p16
I40
sS'_filename'
p17
S'/cvmfs/cms.cern.ch/slc6_amd64_gcc530/cms/cmssw/CMSSW_8_0_12/python/FWCore/ParameterSet/Modules.py'
p18
sg13
g0
(cFWCore.ParameterSet.Types
vstring
p19
c__builtin__
list
p20
(lp21
S'HCAL'
p22
aS'ZDC'
p23
aS'CASTOR'
p24
aS'EcalBarrel'
p25
aS'EcalEndcap'
p26
aS'EcalPreshower'
p27
aS'TOWER'
p28
atp29
Rp30
(dp31
g14
I00
sS'_ParameterTypeBase__isTracked'
p32
I01
sg15
I00
sS'_nPerLine'
p33
I1
sbsS'_Labelable__label'
p34
g6
sS'_TypedParameterizable__type'
p35
g6
sbsS'_Process__sequences'
p36
(dp37
S'egmGsfElectronIDSequence'
p38
g0
(cFWCore.ParameterSet.SequenceTypes
Sequence
p39
g2
Ntp40
Rp41
(dp42
g14
I00
sS'_seq'
p43
g0
(cFWCore.ParameterSet.SequenceTypes
_SequenceCollection
p44
g2
Ntp45
Rp46
(dp47
S'_collection'
p48
(lp49
g0
(cFWCore.ParameterSet.Modules
EDProducer
p50
g2
Ntp51
Rp52
(dp53
g11
(lp54
S'src'
p55
aS'srcMiniAOD'
p56
aS'mvaConfigurations'
p57
asg14
I00
sg56
g0
(cFWCore.ParameterSet.Types
InputTag
p58
g2
Ntp59
Rp60
(dp61
g14
I00
sg32
I01
sg15
I00
sS'_InputTag__moduleLabel'
p62
S'slimmedElectrons'
p63
sS'_InputTag__processName'
p64
S'@skipCurrentProcess'
p65
sS'_InputTag__productInstance'
p66
S''
p67
sbsg15
I00
sg55
g0
(g58
g2
Ntp68
Rp69
(dp70
g14
I00
sg32
I01
sg15
I00
sg62
S'gedGsfElectrons'
p71
sg64
g67
sg66
g67
sbsg17
S'/cvmfs/cms.cern.ch/slc6_amd64_gcc530/cms/cmssw/CMSSW_8_0_12/python/RecoEgamma/ElectronIdentification/ElectronMVAValueMapProducer_cfi.py'
p72
sg57
g0
(cFWCore.ParameterSet.Types
VPSet
p73
g20
(lp74
g0
(cFWCore.ParameterSet.Types
PSet
p75
g2
Ntp76
Rp77
(dp78
g14
I00
sg32
I01
sg15
I00
sS'weightFileNames'
p79
g0
(g19
g20
(lp80
S'RecoEgamma/ElectronIdentification/data/PHYS14/EIDmva_EB1_5_oldscenario2phys14_BDT.weights.xml'
p81
aS'RecoEgamma/ElectronIdentification/data/PHYS14/EIDmva_EB2_5_oldscenario2phys14_BDT.weights.xml'
p82
aS'RecoEgamma/ElectronIdentification/data/PHYS14/EIDmva_EE_5_oldscenario2phys14_BDT.weights.xml'
p83
aS'RecoEgamma/ElectronIdentification/data/PHYS14/EIDmva_EB1_10_oldscenario2phys14_BDT.weights.xml'
p84
aS'RecoEgamma/ElectronIdentification/data/PHYS14/EIDmva_EB2_10_oldscenario2phys14_BDT.weights.xml'
p85
aS'RecoEgamma/ElectronIdentification/data/PHYS14/EIDmva_EE_10_oldscenario2phys14_BDT.weights.xml'
p86
atp87
Rp88
(dp89
g14
I00
sg32
I01
sg15
I00
sg33
I1
sbsS'mvaName'
p90
g0
(cFWCore.ParameterSet.Types
string
p91
g2
Ntp92
Rp93
(dp94
g14
I00
sg32
I01
sS'_value'
p95
S'ElectronMVAEstimatorRun2Phys14NonTrig'
p96
sg15
I00
sbsS'mvaTag'
p97
g0
(g91
g2
Ntp98
Rp99
(dp100
g14
I00
sg32
I01
sg95
S'25nsV1'
p101
sg15
I00
sbsg11
(lp102
g90
ag79
ag97
asg34
S'mvaEleID_PHYS14_PU20bx25_nonTrig_V1_producer_config'
p103
sbag0
(g75
g2
Ntp104
Rp105
(dp106
g14
I00
sg32
I01
sS'beamSpot'
p107
g0
(g58
g2
Ntp108
Rp109
(dp110
g14
I00
sg32
I01
sg15
I00
sg62
S'offlineBeamSpot'
p111
sg64
g67
sg66
g67
sbsS'conversionsAOD'
p112
g0
(g58
g2
Ntp113
Rp114
(dp115
g14
I00
sg32
I01
sg15
I00
sg62
S'allConversions'
p116
sg64
g67
sg66
g67
sbsS'conversionsMiniAOD'
p117
g0
(g58
g2
Ntp118
Rp119
(dp120
g14
I00
sg32
I01
sg15
I00
sg62
S'reducedEgamma'
p121
sg64
g67
sg66
S'reducedConversions'
p122
sbsg79
g0
(g19
g20
(lp123
S'RecoEgamma/ElectronIdentification/data/Spring15/EIDmva_EB1_5_oldNonTrigSpring15_ConvVarCwoBoolean_TMVA412_FullStatLowPt_PairNegWeightsGlobal_BDT.weights.xml'
p124
aS'RecoEgamma/ElectronIdentification/data/Spring15/EIDmva_EB2_5_oldNonTrigSpring15_ConvVarCwoBoolean_TMVA412_FullStatLowPt_PairNegWeightsGlobal_BDT.weights.xml'
p125
aS'RecoEgamma/ElectronIdentification/data/Spring15/EIDmva_EE_5_oldNonTrigSpring15_ConvVarCwoBoolean_TMVA412_FullStatLowPt_PairNegWeightsGlobal_BDT.weights.xml'
p126
aS'RecoEgamma/ElectronIdentification/data/Spring15/EIDmva_EB1_10_oldNonTrigSpring15_ConvVarCwoBoolean_TMVA412_FullStatLowPt_PairNegWeightsGlobal_BDT.weights.xml'
p127
aS'RecoEgamma/ElectronIdentification/data/Spring15/EIDmva_EB2_10_oldNonTrigSpring15_ConvVarCwoBoolean_TMVA412_FullStatLowPt_PairNegWeightsGlobal_BDT.weights.xml'
p128
aS'RecoEgamma/ElectronIdentification/data/Spring15/EIDmva_EE_10_oldNonTrigSpring15_ConvVarCwoBoolean_TMVA412_FullStatLowPt_PairNegWeightsGlobal_BDT.weights.xml'
p129
atp130
Rp131
(dp132
g14
I00
sg32
I01
sg15
I00
sg33
I1
sbsg90
g0
(g91
g2
Ntp133
Rp134
(dp135
g14
I00
sg32
I01
sg95
S'ElectronMVAEstimatorRun2Spring15NonTrig'
p136
sg15
I00
sbsg97
g0
(g91
g2
Ntp137
Rp138
(dp139
g14
I00
sg32
I01
sg95
g101
sg15
I00
sbsg11
(lp140
g90
ag107
ag112
ag117
ag79
ag97
asg34
S'mvaEleID_Spring15_25ns_nonTrig_V1_producer_config'
p141
sg15
I00
sbag0
(g75
g2
Ntp142
Rp143
(dp144
g14
I00
sg32
I01
sg107
g0
(g58
g2
Ntp145
Rp146
(dp147
g14
I00
sg32
I01
sg15
I00
sg62
g111
sg64
g67
sg66
g67
sbsg112
g0
(g58
g2
Ntp148
Rp149
(dp150
g14
I00
sg32
I01
sg15
I00
sg62
g116
sg64
g67
sg66
g67
sbsg117
g0
(g58
g2
Ntp151
Rp152
(dp153
g14
I00
sg32
I01
sg15
I00
sg62
S'reducedEgamma'
p154
sg64
g67
sg66
S'reducedConversions'
p155
sbsg79
g0
(g19
g20
(lp156
S'RecoEgamma/ElectronIdentification/data/Spring15/EIDmva_EB1_10_oldTrigSpring15_50ns_data_1_VarD_TMVA412_Sig6BkgAll_MG_noSpec_BDT.weights.xml'
p157
aS'RecoEgamma/ElectronIdentification/data/Spring15/EIDmva_EB2_10_oldTrigSpring15_50ns_data_1_VarD_TMVA412_Sig6BkgAll_MG_noSpec_BDT.weights.xml'
p158
aS'RecoEgamma/ElectronIdentification/data/Spring15/EIDmva_EE_10_oldTrigSpring15_50ns_data_1_VarD_TMVA412_Sig6BkgAll_MG_noSpec_BDT.weights.xml'
p159
atp160
Rp161
(dp162
g14
I00
sg32
I01
sg15
I00
sg33
I1
sbsg90
g0
(g91
g2
Ntp163
Rp164
(dp165
g14
I00
sg32
I01
sg95
S'ElectronMVAEstimatorRun2Spring15Trig'
p166
sg15
I00
sbsg97
g0
(g91
g2
Ntp167
Rp168
(dp169
g14
I00
sg32
I01
sg95
S'50nsV1'
p170
sg15
I00
sbsg11
(lp171
g90
ag107
ag112
ag117
ag79
ag97
asg34
S'mvaEleID_Spring15_50ns_Trig_V1_producer_config'
p172
sg15
I00
sbag0
(g75
g2
Ntp173
Rp174
(dp175
g14
I00
sg32
I01
sg107
g0
(g58
g2
Ntp176
Rp177
(dp178
g14
I00
sg32
I01
sg15
I00
sg62
g111
sg64
g67
sg66
g67
sbsg112
g0
(g58
g2
Ntp179
Rp180
(dp181
g14
I00
sg32
I01
sg15
I00
sg62
g116
sg64
g67
sg66
g67
sbsg117
g0
(g58
g2
Ntp182
Rp183
(dp184
g14
I00
sg32
I01
sg15
I00
sg62
S'reducedEgamma'
p185
sg64
g67
sg66
S'reducedConversions'
p186
sbsg79
g0
(g19
g20
(lp187
S'RecoEgamma/ElectronIdentification/data/Spring15/EIDmva_EB1_10_oldTrigSpring15_25ns_data_1_VarD_TMVA412_Sig6BkgAll_MG_noSpec_BDT.weights.xml'
p188
aS'RecoEgamma/ElectronIdentification/data/Spring15/EIDmva_EB2_10_oldTrigSpring15_25ns_data_1_VarD_TMVA412_Sig6BkgAll_MG_noSpec_BDT.weights.xml'
p189
aS'RecoEgamma/ElectronIdentification/data/Spring15/EIDmva_EE_10_oldTrigSpring15_25ns_data_1_VarD_TMVA412_Sig6BkgAll_MG_noSpec_BDT.weights.xml'
p190
atp191
Rp192
(dp193
g14
I00
sg32
I01
sg15
I00
sg33
I1
sbsg90
g0
(g91
g2
Ntp194
Rp195
(dp196
g14
I00
sg32
I01
sg95
g166
sg15
I00
sbsg97
g0
(g91
g2
Ntp197
Rp198
(dp199
g14
I00
sg32
I01
sg95
g101
sg15
I00
sbsg11
(lp200
g90
ag107
ag112
ag117
ag79
ag97
asg34
S'mvaEleID_Spring15_25ns_Trig_V1_producer_config'
p201
sg15
I00
sbatp202
Rp203
(dp204
g14
I00
sg32
I01
sg34
S'mvaConfigsForEleProducer'
p205
sg15
I00
sg33
I1
sbsg16
I31
sg34
S'electronMVAValueMapProducer'
p206
sg35
S'ElectronMVAValueMapProducer'
p207
sbag0
(g50
g2
Ntp208
Rp209
(dp210
g11
(lp211
S'physicsObjectIDs'
p212
aS'physicsObjectSrc'
p213
asg14
I00
sg15
I01
sg16
I6
sg17
S'/cvmfs/cms.cern.ch/slc6_amd64_gcc530/cms/cmssw/CMSSW_8_0_12/python/RecoEgamma/ElectronIdentification/egmGsfElectronIDs_cfi.py'
p214
sg213
g0
(g58
g2
Ntp215
Rp216
(dp217
g14
I00
sg32
I01
sg15
I00
sg62
g63
sg64
g67
sg66
g67
sbsg212
g0
(g73
g20
(lp218
g0
(g75
g2
Ntp219
Rp220
(dp221
g14
I00
sg32
I01
sS'idDefinition'
p222
g0
(g75
g2
Ntp223
Rp224
(dp225
g14
I00
sg32
I01
sg15
I01
sS'idName'
p226
g0
(g91
g2
Ntp227
Rp228
(dp229
g14
I00
sg32
I01
sg95
S'cutBasedElectronID-Spring15-25ns-V1-standalone-loose'
p230
sg15
I00
sbsS'cutFlow'
p231
g0
(g73
g20
(lp232
g0
(g75
g2
Ntp233
Rp234
(dp235
g14
I00
sg32
I01
sg15
I00
sS'cutName'
p236
g0
(g91
g2
Ntp237
Rp238
(dp239
g14
I00
sg32
I01
sg95
S'MinPtCut'
p240
sg15
I00
sbsS'needsAdditionalProducts'
p241
g0
(cFWCore.ParameterSet.Types
bool
p242
g2
Ntp243
Rp244
(dp245
g14
I00
sg32
I01
sg95
I00
sg15
I00
sbsS'isIgnored'
p246
g0
(g242
g2
Ntp247
Rp248
(dp249
g14
I00
sg32
I01
sg95
I00
sg15
I00
sbsg11
(lp250
g241
aS'minPt'
p251
ag236
ag246
asg251
g0
(cFWCore.ParameterSet.Types
double
p252
g2
Ntp253
Rp254
(dp255
g14
I00
sg32
I01
sg95
F5.0
sg15
I00
sbsbag0
(g75
g2
Ntp256
Rp257
(dp258
g14
I00
sg32
I01
sg15
I00
sg236
g0
(g91
g2
Ntp259
Rp260
(dp261
g14
I00
sg32
I01
sg95
S'GsfEleSCEtaMultiRangeCut'
p262
sg15
I00
sbsg241
g0
(g242
g2
Ntp263
Rp264
(dp265
g14
I00
sg32
I01
sg95
I00
sg15
I00
sbsg246
g0
(g242
g2
Ntp266
Rp267
(dp268
g14
I00
sg32
I01
sg95
I00
sg15
I00
sbsS'allowedEtaRanges'
p269
g0
(g73
g20
(lp270
g0
(g75
g2
Ntp271
Rp272
(dp273
g14
I00
sg32
I01
sg15
I00
sS'maxEta'
p274
g0
(g252
g2
Ntp275
Rp276
(dp277
g14
I00
sg32
I01
sg95
F1.479
sg15
I00
sbsS'minEta'
p278
g0
(g252
g2
Ntp279
Rp280
(dp281
g14
I00
sg32
I01
sg95
F0.0
sg15
I00
sbsg11
(lp282
g274
ag278
asbag0
(g75
g2
Ntp283
Rp284
(dp285
g14
I00
sg32
I01
sg15
I00
sg274
g0
(g252
g2
Ntp286
Rp287
(dp288
g14
I00
sg32
I01
sg95
F2.5
sg15
I00
sbsg278
g0
(g252
g2
Ntp289
Rp290
(dp291
g14
I00
sg32
I01
sg95
F1.479
sg15
I00
sbsg11
(lp292
g274
ag278
asbatp293
Rp294
(dp295
g14
I00
sg32
I01
sg15
I00
sg33
I1
sbsg11
(lp296
g241
aS'useAbsEta'
p297
ag236
ag269
ag246
asg297
g0
(g242
g2
Ntp298
Rp299
(dp300
g14
I00
sg32
I01
sg95
I01
sg15
I00
sbsbag0
(g75
g2
Ntp301
Rp302
(dp303
g14
I00
sg32
I01
sg15
I00
sg236
g0
(g91
g2
Ntp304
Rp305
(dp306
g14
I00
sg32
I01
sg95
S'GsfEleDEtaInCut'
p307
sg15
I00
sbsg241
g0
(g242
g2
Ntp308
Rp309
(dp310
g14
I00
sg32
I01
sg95
I00
sg15
I00
sbsS'dEtaInCutValueEB'
p311
g0
(g252
g2
Ntp312
Rp313
(dp314
g14
I00
sg32
I01
sg95
F0.0105
sg15
I00
sbsS'dEtaInCutValueEE'
p315
g0
(g252
g2
Ntp316
Rp317
(dp318
g14
I00
sg32
I01
sg95
F0.00814
sg15
I00
sbsS'barrelCutOff'
p319
g0
(g252
g2
Ntp320
Rp321
(dp322
g14
I00
sg32
I01
sg95
F1.479
sg15
I00
sbsg11
(lp323
g236
ag241
ag311
ag315
ag319
ag246
asg246
g0
(g242
g2
Ntp324
Rp325
(dp326
g14
I00
sg32
I01
sg95
I00
sg15
I00
sbsbag0
(g75
g2
Ntp327
Rp328
(dp329
g14
I00
sg32
I01
sg15
I00
sg236
g0
(g91
g2
Ntp330
Rp331
(dp332
g14
I00
sg32
I01
sg95
S'GsfEleDPhiInCut'
p333
sg15
I00
sbsg241
g0
(g242
g2
Ntp334
Rp335
(dp336
g14
I00
sg32
I01
sg95
I00
sg15
I00
sbsS'dPhiInCutValueEB'
p337
g0
(g252
g2
Ntp338
Rp339
(dp340
g14
I00
sg32
I01
sg95
F0.115
sg15
I00
sbsg319
g0
(g252
g2
Ntp341
Rp342
(dp343
g14
I00
sg32
I01
sg95
F1.479
sg15
I00
sbsS'dPhiInCutValueEE'
p344
g0
(g252
g2
Ntp345
Rp346
(dp347
g14
I00
sg32
I01
sg95
F0.182
sg15
I00
sbsg11
(lp348
g236
ag241
ag337
ag319
ag344
ag246
asg246
g0
(g242
g2
Ntp349
Rp350
(dp351
g14
I00
sg32
I01
sg95
I00
sg15
I00
sbsbag0
(g75
g2
Ntp352
Rp353
(dp354
g14
I00
sg32
I01
sg15
I00
sg236
g0
(g91
g2
Ntp355
Rp356
(dp357
g14
I00
sg32
I01
sg95
S'GsfEleFull5x5SigmaIEtaIEtaCut'
p358
sg15
I00
sbsg319
g0
(g252
g2
Ntp359
Rp360
(dp361
g14
I00
sg32
I01
sg95
F1.479
sg15
I00
sbsg241
g0
(g242
g2
Ntp362
Rp363
(dp364
g14
I00
sg32
I01
sg95
I00
sg15
I00
sbsS'full5x5SigmaIEtaIEtaCutValueEB'
p365
g0
(g252
g2
Ntp366
Rp367
(dp368
g14
I00
sg32
I01
sg95
F0.0103
sg15
I00
sbsg11
(lp369
g236
ag319
ag241
ag246
aS'full5x5SigmaIEtaIEtaCutValueEE'
p370
ag365
asg370
g0
(g252
g2
Ntp371
Rp372
(dp373
g14
I00
sg32
I01
sg95
F0.0301
sg15
I00
sbsg246
g0
(g242
g2
Ntp374
Rp375
(dp376
g14
I00
sg32
I01
sg95
I00
sg15
I00
sbsbag0
(g75
g2
Ntp377
Rp378
(dp379
g14
I00
sg32
I01
sg15
I00
sg236
g0
(g91
g2
Ntp380
Rp381
(dp382
g14
I00
sg32
I01
sg95
S'GsfEleHadronicOverEMCut'
p383
sg15
I00
sbsg319
g0
(g252
g2
Ntp384
Rp385
(dp386
g14
I00
sg32
I01
sg95
F1.479
sg15
I00
sbsg241
g0
(g242
g2
Ntp387
Rp388
(dp389
g14
I00
sg32
I01
sg95
I00
sg15
I00
sbsS'hadronicOverEMCutValueEE'
p390
g0
(g252
g2
Ntp391
Rp392
(dp393
g14
I00
sg32
I01
sg95
F0.0897
sg15
I00
sbsS'hadronicOverEMCutValueEB'
p394
g0
(g252
g2
Ntp395
Rp396
(dp397
g14
I00
sg32
I01
sg95
F0.104
sg15
I00
sbsg11
(lp398
g236
ag319
ag241
ag390
ag394
ag246
asg246
g0
(g242
g2
Ntp399
Rp400
(dp401
g14
I00
sg32
I01
sg95
I00
sg15
I00
sbsbag0
(g75
g2
Ntp402
Rp403
(dp404
g14
I00
sg32
I01
sg15
I00
sg236
g0
(g91
g2
Ntp405
Rp406
(dp407
g14
I00
sg32
I01
sg95
S'GsfEleDxyCut'
p408
sg15
I00
sbsg241
g0
(g242
g2
Ntp409
Rp410
(dp411
g14
I00
sg32
I01
sg95
I01
sg15
I00
sbsg319
g0
(g252
g2
Ntp412
Rp413
(dp414
g14
I00
sg32
I01
sg95
F1.479
sg15
I00
sbsS'dxyCutValueEB'
p415
g0
(g252
g2
Ntp416
Rp417
(dp418
g14
I00
sg32
I01
sg95
F0.0261
sg15
I00
sbsS'vertexSrc'
p419
g0
(g58
g2
Ntp420
Rp421
(dp422
g14
I00
sg32
I01
sg15
I00
sg62
S'offlinePrimaryVertices'
p423
sg64
g67
sg66
g67
sbsg11
(lp424
g236
ag241
ag319
ag415
ag419
aS'dxyCutValueEE'
p425
ag246
aS'vertexSrcMiniAOD'
p426
asg426
g0
(g58
g2
Ntp427
Rp428
(dp429
g14
I00
sg32
I01
sg15
I00
sg62
S'offlineSlimmedPrimaryVertices'
p430
sg64
g67
sg66
g67
sbsg246
g0
(g242
g2
Ntp431
Rp432
(dp433
g14
I00
sg32
I01
sg95
I00
sg15
I00
sbsg425
g0
(g252
g2
Ntp434
Rp435
(dp436
g14
I00
sg32
I01
sg95
F0.118
sg15
I00
sbsbag0
(g75
g2
Ntp437
Rp438
(dp439
g14
I00
sg32
I01
sg15
I00
sg236
g0
(g91
g2
Ntp440
Rp441
(dp442
g14
I00
sg32
I01
sg95
S'GsfEleDzCut'
p443
sg15
I00
sbsg241
g0
(g242
g2
Ntp444
Rp445
(dp446
g14
I00
sg32
I01
sg95
I01
sg15
I00
sbsg319
g0
(g252
g2
Ntp447
Rp448
(dp449
g14
I00
sg32
I01
sg95
F1.479
sg15
I00
sbsS'dzCutValueEE'
p450
g0
(g252
g2
Ntp451
Rp452
(dp453
g14
I00
sg32
I01
sg95
F0.822
sg15
I00
sbsS'dzCutValueEB'
p454
g0
(g252
g2
Ntp455
Rp456
(dp457
g14
I00
sg32
I01
sg95
F0.41
sg15
I00
sbsg419
g0
(g58
g2
Ntp458
Rp459
(dp460
g14
I00
sg32
I01
sg15
I00
sg62
g423
sg64
g67
sg66
g67
sbsg11
(lp461
g236
ag241
ag319
ag450
ag454
ag419
ag246
ag426
asg246
g0
(g242
g2
Ntp462
Rp463
(dp464
g14
I00
sg32
I01
sg95
I00
sg15
I00
sbsg426
g0
(g58
g2
Ntp465
Rp466
(dp467
g14
I00
sg32
I01
sg15
I00
sg62
g430
sg64
g67
sg66
g67
sbsbag0
(g75
g2
Ntp468
Rp469
(dp470
g14
I00
sg32
I01
sg15
I00
sg236
g0
(g91
g2
Ntp471
Rp472
(dp473
g14
I00
sg32
I01
sg95
S'GsfEleEInverseMinusPInverseCut'
p474
sg15
I00
sbsg319
g0
(g252
g2
Ntp475
Rp476
(dp477
g14
I00
sg32
I01
sg95
F1.479
sg15
I00
sbsg241
g0
(g242
g2
Ntp478
Rp479
(dp480
g14
I00
sg32
I01
sg95
I00
sg15
I00
sbsS'eInverseMinusPInverseCutValueEB'
p481
g0
(g252
g2
Ntp482
Rp483
(dp484
g14
I00
sg32
I01
sg95
F0.102
sg15
I00
sbsS'eInverseMinusPInverseCutValueEE'
p485
g0
(g252
g2
Ntp486
Rp487
(dp488
g14
I00
sg32
I01
sg95
F0.126
sg15
I00
sbsg11
(lp489
g236
ag319
ag241
ag481
ag485
ag246
asg246
g0
(g242
g2
Ntp490
Rp491
(dp492
g14
I00
sg32
I01
sg95
I00
sg15
I00
sbsbag0
(g75
g2
Ntp493
Rp494
(dp495
g14
I00
sg32
I01
sg15
I00
sg236
g0
(g91
g2
Ntp496
Rp497
(dp498
g14
I00
sg32
I01
sg95
S'GsfEleEffAreaPFIsoCut'
p499
sg15
I00
sbsg319
g0
(g252
g2
Ntp500
Rp501
(dp502
g14
I00
sg32
I01
sg95
F1.479
sg15
I00
sbsS'isoCutEELowPt'
p503
g0
(g252
g2
Ntp504
Rp505
(dp506
g14
I00
sg32
I01
sg95
F0.121
sg15
I00
sbsS'ptCutOff'
p507
g0
(g252
g2
Ntp508
Rp509
(dp510
g14
I00
sg32
I01
sg95
F20.0
sg15
I00
sbsS'isoCutEEHighPt'
p511
g0
(g252
g2
Ntp512
Rp513
(dp514
g14
I00
sg32
I01
sg95
F0.121
sg15
I00
sbsS'isoCutEBHighPt'
p515
g0
(g252
g2
Ntp516
Rp517
(dp518
g14
I00
sg32
I01
sg95
F0.0893
sg15
I00
sbsg241
g0
(g242
g2
Ntp519
Rp520
(dp521
g14
I00
sg32
I01
sg95
I01
sg15
I00
sbsS'rho'
p522
g0
(g58
g2
Ntp523
Rp524
(dp525
g14
I00
sg32
I01
sg15
I00
sg62
S'fixedGridRhoFastjetAll'
p526
sg64
g67
sg66
g67
sbsg11
(lp527
g236
ag319
ag503
ag507
ag511
ag515
ag241
ag522
aS'effAreasConfigFile'
p528
aS'isRelativeIso'
p529
ag246
aS'isoCutEBLowPt'
p530
asg529
g0
(g242
g2
Ntp531
Rp532
(dp533
g14
I00
sg32
I01
sg95
I01
sg15
I00
sbsg528
g0
(cFWCore.ParameterSet.Types
FileInPath
p534
g2
Ntp535
Rp536
(dp537
g14
I00
sg32
I01
sg95
S'RecoEgamma/ElectronIdentification/data/Spring15/effAreaElectrons_cone03_pfNeuHadronsAndPhotons_25ns.txt'
p538
sg15
I00
sbsg246
g0
(g242
g2
Ntp539
Rp540
(dp541
g14
I00
sg32
I01
sg95
I00
sg15
I00
sbsg530
g0
(g252
g2
Ntp542
Rp543
(dp544
g14
I00
sg32
I01
sg95
F0.0893
sg15
I00
sbsbag0
(g75
g2
Ntp545
Rp546
(dp547
g14
I00
sg32
I01
sS'beamspotSrc'
p548
g0
(g58
g2
Ntp549
Rp550
(dp551
g14
I00
sg32
I01
sg15
I00
sg62
g111
sg64
g67
sg66
g67
sbsg15
I00
sg236
g0
(g91
g2
Ntp552
Rp553
(dp554
g14
I00
sg32
I01
sg95
S'GsfEleConversionVetoCut'
p555
sg15
I00
sbsg241
g0
(g242
g2
Ntp556
Rp557
(dp558
g14
I00
sg32
I01
sg95
I01
sg15
I00
sbsg246
g0
(g242
g2
Ntp559
Rp560
(dp561
g14
I00
sg32
I01
sg95
I00
sg15
I00
sbsS'conversionSrc'
p562
g0
(g58
g2
Ntp563
Rp564
(dp565
g14
I00
sg32
I01
sg15
I00
sg62
g116
sg64
g67
sg66
g67
sbsS'conversionSrcMiniAOD'
p566
g0
(g58
g2
Ntp567
Rp568
(dp569
g14
I00
sg32
I01
sg15
I00
sg62
S'reducedEgamma'
p570
sg64
g67
sg66
S'reducedConversions'
p571
sbsg11
(lp572
g548
ag236
ag241
ag246
ag566
ag562
asbag0
(g75
g2
Ntp573
Rp574
(dp575
g14
I00
sg32
I01
sg15
I00
sg236
g0
(g91
g2
Ntp576
Rp577
(dp578
g14
I00
sg32
I01
sg95
S'GsfEleMissingHitsCut'
p579
sg15
I00
sbsg319
g0
(g252
g2
Ntp580
Rp581
(dp582
g14
I00
sg32
I01
sg95
F1.479
sg15
I00
sbsg241
g0
(g242
g2
Ntp583
Rp584
(dp585
g14
I00
sg32
I01
sg95
I00
sg15
I00
sbsg11
(lp586
g236
ag319
ag241
aS'maxMissingHitsEE'
p587
aS'maxMissingHitsEB'
p588
ag246
asg587
g0
(cFWCore.ParameterSet.Types
uint32
p589
g2
Ntp590
Rp591
(dp592
g14
I00
sg32
I01
sg95
I1
sg15
I00
sbsg588
g0
(g589
g2
Ntp593
Rp594
(dp595
g14
I00
sg32
I01
sg95
I2
sg15
I00
sbsg246
g0
(g242
g2
Ntp596
Rp597
(dp598
g14
I00
sg32
I01
sg95
I00
sg15
I00
sbsbatp599
Rp600
(dp601
g14
I00
sg32
I01
sg15
I00
sg33
I1
sbsg11
(lp602
g226
ag231
asbsg15
I00
sS'idMD5'
p603
g0
(g91
g2
Ntp604
Rp605
(dp606
g14
I00
sg32
I01
sg95
S'4fab9e4d09a2c1a36cbbd2279deb3627'
p607
sg15
I00
sbsS'isPOGApproved'
p608
g0
(g242
g2
Ntp609
Rp610
(dp611
g14
I00
sg32
I00
sg95
I01
sg15
I00
sbsg11
(lp612
g222
ag603
ag608
asbag0
(g75
g2
Ntp613
Rp614
(dp615
g14
I00
sg32
I01
sg222
g0
(g75
g2
Ntp616
Rp617
(dp618
g14
I00
sg32
I01
sg15
I01
sg226
g0
(g91
g2
Ntp619
Rp620
(dp621
g14
I00
sg32
I01
sg95
S'cutBasedElectronID-Spring15-25ns-V1-standalone-medium'
p622
sg15
I00
sbsg231
g0
(g73
g20
(lp623
g0
(g75
g2
Ntp624
Rp625
(dp626
g14
I00
sg32
I01
sg15
I00
sg236
g0
(g91
g2
Ntp627
Rp628
(dp629
g14
I00
sg32
I01
sg95
g240
sg15
I00
sbsg241
g0
(g242
g2
Ntp630
Rp631
(dp632
g14
I00
sg32
I01
sg95
I00
sg15
I00
sbsg246
g0
(g242
g2
Ntp633
Rp634
(dp635
g14
I00
sg32
I01
sg95
I00
sg15
I00
sbsg11
(lp636
g241
ag251
ag236
ag246
asg251
g0
(g252
g2
Ntp637
Rp638
(dp639
g14
I00
sg32
I01
sg95
F5.0
sg15
I00
sbsbag0
(g75
g2
Ntp640
Rp641
(dp642
g14
I00
sg32
I01
sg15
I00
sg236
g0
(g91
g2
Ntp643
Rp644
(dp645
g14
I00
sg32
I01
sg95
g262
sg15
I00
sbsg241
g0
(g242
g2
Ntp646
Rp647
(dp648
g14
I00
sg32
I01
sg95
I00
sg15
I00
sbsg246
g0
(g242
g2
Ntp649
Rp650
(dp651
g14
I00
sg32
I01
sg95
I00
sg15
I00
sbsg269
g0
(g73
g20
(lp652
g0
(g75
g2
Ntp653
Rp654
(dp655
g14
I00
sg32
I01
sg15
I00
sg274
g0
(g252
g2
Ntp656
Rp657
(dp658
g14
I00
sg32
I01
sg95
F1.479
sg15
I00
sbsg278
g0
(g252
g2
Ntp659
Rp660
(dp661
g14
I00
sg32
I01
sg95
F0.0
sg15
I00
sbsg11
(lp662
g274
ag278
asbag0
(g75
g2
Ntp663
Rp664
(dp665
g14
I00
sg32
I01
sg15
I00
sg274
g0
(g252
g2
Ntp666
Rp667
(dp668
g14
I00
sg32
I01
sg95
F2.5
sg15
I00
sbsg278
g0
(g252
g2
Ntp669
Rp670
(dp671
g14
I00
sg32
I01
sg95
F1.479
sg15
I00
sbsg11
(lp672
g274
ag278
asbatp673
Rp674
(dp675
g14
I00
sg32
I01
sg15
I00
sg33
I1
sbsg11
(lp676
g241
ag297
ag236
ag269
ag246
asg297
g0
(g242
g2
Ntp677
Rp678
(dp679
g14
I00
sg32
I01
sg95
I01
sg15
I00
sbsbag0
(g75
g2
Ntp680
Rp681
(dp682
g14
I00
sg32
I01
sg15
I00
sg236
g0
(g91
g2
Ntp683
Rp684
(dp685
g14
I00
sg32
I01
sg95
g307
sg15
I00
sbsg241
g0
(g242
g2
Ntp686
Rp687
(dp688
g14
I00
sg32
I01
sg95
I00
sg15
I00
sbsg311
g0
(g252
g2
Ntp689
Rp690
(dp691
g14
I00
sg32
I01
sg95
F0.0103
sg15
I00
sbsg315
g0
(g252
g2
Ntp692
Rp693
(dp694
g14
I00
sg32
I01
sg95
F0.00733
sg15
I00
sbsg319
g0
(g252
g2
Ntp695
Rp696
(dp697
g14
I00
sg32
I01
sg95
F1.479
sg15
I00
sbsg11
(lp698
g236
ag241
ag311
ag315
ag319
ag246
asg246
g0
(g242
g2
Ntp699
Rp700
(dp701
g14
I00
sg32
I01
sg95
I00
sg15
I00
sbsbag0
(g75
g2
Ntp702
Rp703
(dp704
g14
I00
sg32
I01
sg15
I00
sg236
g0
(g91
g2
Ntp705
Rp706
(dp707
g14
I00
sg32
I01
sg95
g333
sg15
I00
sbsg241
g0
(g242
g2
Ntp708
Rp709
(dp710
g14
I00
sg32
I01
sg95
I00
sg15
I00
sbsg337
g0
(g252
g2
Ntp711
Rp712
(dp713
g14
I00
sg32
I01
sg95
F0.0336
sg15
I00
sbsg319
g0
(g252
g2
Ntp714
Rp715
(dp716
g14
I00
sg32
I01
sg95
F1.479
sg15
I00
sbsg344
g0
(g252
g2
Ntp717
Rp718
(dp719
g14
I00
sg32
I01
sg95
F0.114
sg15
I00
sbsg11
(lp720
g236
ag241
ag337
ag319
ag344
ag246
asg246
g0
(g242
g2
Ntp721
Rp722
(dp723
g14
I00
sg32
I01
sg95
I00
sg15
I00
sbsbag0
(g75
g2
Ntp724
Rp725
(dp726
g14
I00
sg32
I01
sg15
I00
sg236
g0
(g91
g2
Ntp727
Rp728
(dp729
g14
I00
sg32
I01
sg95
g358
sg15
I00
sbsg319
g0
(g252
g2
Ntp730
Rp731
(dp732
g14
I00
sg32
I01
sg95
F1.479
sg15
I00
sbsg241
g0
(g242
g2
Ntp733
Rp734
(dp735
g14
I00
sg32
I01
sg95
I00
sg15
I00
sbsg365
g0
(g252
g2
Ntp736
Rp737
(dp738
g14
I00
sg32
I01
sg95
F0.0101
sg15
I00
sbsg11
(lp739
g236
ag319
ag241
ag246
ag370
ag365
asg370
g0
(g252
g2
Ntp740
Rp741
(dp742
g14
I00
sg32
I01
sg95
F0.0283
sg15
I00
sbsg246
g0
(g242
g2
Ntp743
Rp744
(dp745
g14
I00
sg32
I01
sg95
I00
sg15
I00
sbsbag0
(g75
g2
Ntp746
Rp747
(dp748
g14
I00
sg32
I01
sg15
I00
sg236
g0
(g91
g2
Ntp749
Rp750
(dp751
g14
I00
sg32
I01
sg95
g383
sg15
I00
sbsg319
g0
(g252
g2
Ntp752
Rp753
(dp754
g14
I00
sg32
I01
sg95
F1.479
sg15
I00
sbsg241
g0
(g242
g2
Ntp755
Rp756
(dp757
g14
I00
sg32
I01
sg95
I00
sg15
I00
sbsg390
g0
(g252
g2
Ntp758
Rp759
(dp760
g14
I00
sg32
I01
sg95
F0.0678
sg15
I00
sbsg394
g0
(g252
g2
Ntp761
Rp762
(dp763
g14
I00
sg32
I01
sg95
F0.0876
sg15
I00
sbsg11
(lp764
g236
ag319
ag241
ag390
ag394
ag246
asg246
g0
(g242
g2
Ntp765
Rp766
(dp767
g14
I00
sg32
I01
sg95
I00
sg15
I00
sbsbag0
(g75
g2
Ntp768
Rp769
(dp770
g14
I00
sg32
I01
sg15
I00
sg236
g0
(g91
g2
Ntp771
Rp772
(dp773
g14
I00
sg32
I01
sg95
g408
sg15
I00
sbsg241
g0
(g242
g2
Ntp774
Rp775
(dp776
g14
I00
sg32
I01
sg95
I01
sg15
I00
sbsg319
g0
(g252
g2
Ntp777
Rp778
(dp779
g14
I00
sg32
I01
sg95
F1.479
sg15
I00
sbsg415
g0
(g252
g2
Ntp780
Rp781
(dp782
g14
I00
sg32
I01
sg95
F0.0118
sg15
I00
sbsg419
g0
(g58
g2
Ntp783
Rp784
(dp785
g14
I00
sg32
I01
sg15
I00
sg62
g423
sg64
g67
sg66
g67
sbsg11
(lp786
g236
ag241
ag319
ag415
ag419
ag425
ag246
ag426
asg426
g0
(g58
g2
Ntp787
Rp788
(dp789
g14
I00
sg32
I01
sg15
I00
sg62
g430
sg64
g67
sg66
g67
sbsg246
g0
(g242
g2
Ntp790
Rp791
(dp792
g14
I00
sg32
I01
sg95
I00
sg15
I00
sbsg425
g0
(g252
g2
Ntp793
Rp794
(dp795
g14
I00
sg32
I01
sg95
F0.0739
sg15
I00
sbsbag0
(g75
g2
Ntp796
Rp797
(dp798
g14
I00
sg32
I01
sg15
I00
sg236
g0
(g91
g2
Ntp799
Rp800
(dp801
g14
I00
sg32
I01
sg95
g443
sg15
I00
sbsg241
g0
(g242
g2
Ntp802
Rp803
(dp804
g14
I00
sg32
I01
sg95
I01
sg15
I00
sbsg319
g0
(g252
g2
Ntp805
Rp806
(dp807
g14
I00
sg32
I01
sg95
F1.479
sg15
I00
sbsg450
g0
(g252
g2
Ntp808
Rp809
(dp810
g14
I00
sg32
I01
sg95
F0.602
sg15
I00
sbsg454
g0
(g252
g2
Ntp811
Rp812
(dp813
g14
I00
sg32
I01
sg95
F0.373
sg15
I00
sbsg419
g0
(g58
g2
Ntp814
Rp815
(dp816
g14
I00
sg32
I01
sg15
I00
sg62
g423
sg64
g67
sg66
g67
sbsg11
(lp817
g236
ag241
ag319
ag450
ag454
ag419
ag246
ag426
asg246
g0
(g242
g2
Ntp818
Rp819
(dp820
g14
I00
sg32
I01
sg95
I00
sg15
I00
sbsg426
g0
(g58
g2
Ntp821
Rp822
(dp823
g14
I00
sg32
I01
sg15
I00
sg62
g430
sg64
g67
sg66
g67
sbsbag0
(g75
g2
Ntp824
Rp825
(dp826
g14
I00
sg32
I01
sg15
I00
sg236
g0
(g91
g2
Ntp827
Rp828
(dp829
g14
I00
sg32
I01
sg95
g474
sg15
I00
sbsg319
g0
(g252
g2
Ntp830
Rp831
(dp832
g14
I00
sg32
I01
sg95
F1.479
sg15
I00
sbsg241
g0
(g242
g2
Ntp833
Rp834
(dp835
g14
I00
sg32
I01
sg95
I00
sg15
I00
sbsg481
g0
(g252
g2
Ntp836
Rp837
(dp838
g14
I00
sg32
I01
sg95
F0.0174
sg15
I00
sbsg485
g0
(g252
g2
Ntp839
Rp840
(dp841
g14
I00
sg32
I01
sg95
F0.0898
sg15
I00
sbsg11
(lp842
g236
ag319
ag241
ag481
ag485
ag246
asg246
g0
(g242
g2
Ntp843
Rp844
(dp845
g14
I00
sg32
I01
sg95
I00
sg15
I00
sbsbag0
(g75
g2
Ntp846
Rp847
(dp848
g14
I00
sg32
I01
sg15
I00
sg236
g0
(g91
g2
Ntp849
Rp850
(dp851
g14
I00
sg32
I01
sg95
g499
sg15
I00
sbsg319
g0
(g252
g2
Ntp852
Rp853
(dp854
g14
I00
sg32
I01
sg95
F1.479
sg15
I00
sbsg503
g0
(g252
g2
Ntp855
Rp856
(dp857
g14
I00
sg32
I01
sg95
F0.0678
sg15
I00
sbsg507
g0
(g252
g2
Ntp858
Rp859
(dp860
g14
I00
sg32
I01
sg95
F20.0
sg15
I00
sbsg511
g0
(g252
g2
Ntp861
Rp862
(dp863
g14
I00
sg32
I01
sg95
F0.0678
sg15
I00
sbsg515
g0
(g252
g2
Ntp864
Rp865
(dp866
g14
I00
sg32
I01
sg95
F0.0766
sg15
I00
sbsg241
g0
(g242
g2
Ntp867
Rp868
(dp869
g14
I00
sg32
I01
sg95
I01
sg15
I00
sbsg522
g0
(g58
g2
Ntp870
Rp871
(dp872
g14
I00
sg32
I01
sg15
I00
sg62
g526
sg64
g67
sg66
g67
sbsg11
(lp873
g236
ag319
ag503
ag507
ag511
ag515
ag241
ag522
ag528
ag529
ag246
ag530
asg529
g0
(g242
g2
Ntp874
Rp875
(dp876
g14
I00
sg32
I01
sg95
I01
sg15
I00
sbsg528
g0
(g534
g2
Ntp877
Rp878
(dp879
g14
I00
sg32
I01
sg95
g538
sg15
I00
sbsg246
g0
(g242
g2
Ntp880
Rp881
(dp882
g14
I00
sg32
I01
sg95
I00
sg15
I00
sbsg530
g0
(g252
g2
Ntp883
Rp884
(dp885
g14
I00
sg32
I01
sg95
F0.0766
sg15
I00
sbsbag0
(g75
g2
Ntp886
Rp887
(dp888
g14
I00
sg32
I01
sg548
g0
(g58
g2
Ntp889
Rp890
(dp891
g14
I00
sg32
I01
sg15
I00
sg62
g111
sg64
g67
sg66
g67
sbsg15
I00
sg236
g0
(g91
g2
Ntp892
Rp893
(dp894
g14
I00
sg32
I01
sg95
g555
sg15
I00
sbsg241
g0
(g242
g2
Ntp895
Rp896
(dp897
g14
I00
sg32
I01
sg95
I01
sg15
I00
sbsg246
g0
(g242
g2
Ntp898
Rp899
(dp900
g14
I00
sg32
I01
sg95
I00
sg15
I00
sbsg562
g0
(g58
g2
Ntp901
Rp902
(dp903
g14
I00
sg32
I01
sg15
I00
sg62
g116
sg64
g67
sg66
g67
sbsg566
g0
(g58
g2
Ntp904
Rp905
(dp906
g14
I00
sg32
I01
sg15
I00
sg62
S'reducedEgamma'
p907
sg64
g67
sg66
S'reducedConversions'
p908
sbsg11
(lp909
g548
ag236
ag241
ag246
ag566
ag562
asbag0
(g75
g2
Ntp910
Rp911
(dp912
g14
I00
sg32
I01
sg15
I00
sg236
g0
(g91
g2
Ntp913
Rp914
(dp915
g14
I00
sg32
I01
sg95
g579
sg15
I00
sbsg319
g0
(g252
g2
Ntp916
Rp917
(dp918
g14
I00
sg32
I01
sg95
F1.479
sg15
I00
sbsg241
g0
(g242
g2
Ntp919
Rp920
(dp921
g14
I00
sg32
I01
sg95
I00
sg15
I00
sbsg11
(lp922
g236
ag319
ag241
ag587
ag588
ag246
asg587
g0
(g589
g2
Ntp923
Rp924
(dp925
g14
I00
sg32
I01
sg95
I1
sg15
I00
sbsg588
g0
(g589
g2
Ntp926
Rp927
(dp928
g14
I00
sg32
I01
sg95
I2
sg15
I00
sbsg246
g0
(g242
g2
Ntp929
Rp930
(dp931
g14
I00
sg32
I01
sg95
I00
sg15
I00
sbsbatp932
Rp933
(dp934
g14
I00
sg32
I01
sg15
I00
sg33
I1
sbsg11
(lp935
g226
ag231
asbsg15
I00
sg603
g0
(g91
g2
Ntp936
Rp937
(dp938
g14
I00
sg32
I01
sg95
S'aa291aba714c148fcba156544907c440'
p939
sg15
I00
sbsg608
g0
(g242
g2
Ntp940
Rp941
(dp942
g14
I00
sg32
I00
sg95
I01
sg15
I00
sbsg11
(lp943
g222
ag603
ag608
asbag0
(g75
g2
Ntp944
Rp945
(dp946
g14
I00
sg32
I01
sg222
g0
(g75
g2
Ntp947
Rp948
(dp949
g14
I00
sg32
I01
sg15
I01
sg226
g0
(g91
g2
Ntp950
Rp951
(dp952
g14
I00
sg32
I01
sg95
S'cutBasedElectronID-Spring15-25ns-V1-standalone-tight'
p953
sg15
I00
sbsg231
g0
(g73
g20
(lp954
g0
(g75
g2
Ntp955
Rp956
(dp957
g14
I00
sg32
I01
sg15
I00
sg236
g0
(g91
g2
Ntp958
Rp959
(dp960
g14
I00
sg32
I01
sg95
g240
sg15
I00
sbsg241
g0
(g242
g2
Ntp961
Rp962
(dp963
g14
I00
sg32
I01
sg95
I00
sg15
I00
sbsg246
g0
(g242
g2
Ntp964
Rp965
(dp966
g14
I00
sg32
I01
sg95
I00
sg15
I00
sbsg11
(lp967
g241
ag251
ag236
ag246
asg251
g0
(g252
g2
Ntp968
Rp969
(dp970
g14
I00
sg32
I01
sg95
F5.0
sg15
I00
sbsbag0
(g75
g2
Ntp971
Rp972
(dp973
g14
I00
sg32
I01
sg15
I00
sg236
g0
(g91
g2
Ntp974
Rp975
(dp976
g14
I00
sg32
I01
sg95
g262
sg15
I00
sbsg241
g0
(g242
g2
Ntp977
Rp978
(dp979
g14
I00
sg32
I01
sg95
I00
sg15
I00
sbsg246
g0
(g242
g2
Ntp980
Rp981
(dp982
g14
I00
sg32
I01
sg95
I00
sg15
I00
sbsg269
g0
(g73
g20
(lp983
g0
(g75
g2
Ntp984
Rp985
(dp986
g14
I00
sg32
I01
sg15
I00
sg274
g0
(g252
g2
Ntp987
Rp988
(dp989
g14
I00
sg32
I01
sg95
F1.479
sg15
I00
sbsg278
g0
(g252
g2
Ntp990
Rp991
(dp992
g14
I00
sg32
I01
sg95
F0.0
sg15
I00
sbsg11
(lp993
g274
ag278
asbag0
(g75
g2
Ntp994
Rp995
(dp996
g14
I00
sg32
I01
sg15
I00
sg274
g0
(g252
g2
Ntp997
Rp998
(dp999
g14
I00
sg32
I01
sg95
F2.5
sg15
I00
sbsg278
g0
(g252
g2
Ntp1000
Rp1001
(dp1002
g14
I00
sg32
I01
sg95
F1.479
sg15
I00
sbsg11
(lp1003
g274
ag278
asbatp1004
Rp1005
(dp1006
g14
I00
sg32
I01
sg15
I00
sg33
I1
sbsg11
(lp1007
g241
ag297
ag236
ag269
ag246
asg297
g0
(g242
g2
Ntp1008
Rp1009
(dp1010
g14
I00
sg32
I01
sg95
I01
sg15
I00
sbsbag0
(g75
g2
Ntp1011
Rp1012
(dp1013
g14
I00
sg32
I01
sg15
I00
sg236
g0
(g91
g2
Ntp1014
Rp1015
(dp1016
g14
I00
sg32
I01
sg95
g307
sg15
I00
sbsg241
g0
(g242
g2
Ntp1017
Rp1018
(dp1019
g14
I00
sg32
I01
sg95
I00
sg15
I00
sbsg311
g0
(g252
g2
Ntp1020
Rp1021
(dp1022
g14
I00
sg32
I01
sg95
F0.00926
sg15
I00
sbsg315
g0
(g252
g2
Ntp1023
Rp1024
(dp1025
g14
I00
sg32
I01
sg95
F0.00724
sg15
I00
sbsg319
g0
(g252
g2
Ntp1026
Rp1027
(dp1028
g14
I00
sg32
I01
sg95
F1.479
sg15
I00
sbsg11
(lp1029
g236
ag241
ag311
ag315
ag319
ag246
asg246
g0
(g242
g2
Ntp1030
Rp1031
(dp1032
g14
I00
sg32
I01
sg95
I00
sg15
I00
sbsbag0
(g75
g2
Ntp1033
Rp1034
(dp1035
g14
I00
sg32
I01
sg15
I00
sg236
g0
(g91
g2
Ntp1036
Rp1037
(dp1038
g14
I00
sg32
I01
sg95
g333
sg15
I00
sbsg241
g0
(g242
g2
Ntp1039
Rp1040
(dp1041
g14
I00
sg32
I01
sg95
I00
sg15
I00
sbsg337
g0
(g252
g2
Ntp1042
Rp1043
(dp1044
g14
I00
sg32
I01
sg95
F0.0336
sg15
I00
sbsg319
g0
(g252
g2
Ntp1045
Rp1046
(dp1047
g14
I00
sg32
I01
sg95
F1.479
sg15
I00
sbsg344
g0
(g252
g2
Ntp1048
Rp1049
(dp1050
g14
I00
sg32
I01
sg95
F0.0918
sg15
I00
sbsg11
(lp1051
g236
ag241
ag337
ag319
ag344
ag246
asg246
g0
(g242
g2
Ntp1052
Rp1053
(dp1054
g14
I00
sg32
I01
sg95
I00
sg15
I00
sbsbag0
(g75
g2
Ntp1055
Rp1056
(dp1057
g14
I00
sg32
I01
sg15
I00
sg236
g0
(g91
g2
Ntp1058
Rp1059
(dp1060
g14
I00
sg32
I01
sg95
g358
sg15
I00
sbsg319
g0
(g252
g2
Ntp1061
Rp1062
(dp1063
g14
I00
sg32
I01
sg95
F1.479
sg15
I00
sbsg241
g0
(g242
g2
Ntp1064
Rp1065
(dp1066
g14
I00
sg32
I01
sg95
I00
sg15
I00
sbsg365
g0
(g252
g2
Ntp1067
Rp1068
(dp1069
g14
I00
sg32
I01
sg95
F0.0101
sg15
I00
sbsg11
(lp1070
g236
ag319
ag241
ag246
ag370
ag365
asg370
g0
(g252
g2
Ntp1071
Rp1072
(dp1073
g14
I00
sg32
I01
sg95
F0.0279
sg15
I00
sbsg246
g0
(g242
g2
Ntp1074
Rp1075
(dp1076
g14
I00
sg32
I01
sg95
I00
sg15
I00
sbsbag0
(g75
g2
Ntp1077
Rp1078
(dp1079
g14
I00
sg32
I01
sg15
I00
sg236
g0
(g91
g2
Ntp1080
Rp1081
(dp1082
g14
I00
sg32
I01
sg95
g383
sg15
I00
sbsg319
g0
(g252
g2
Ntp1083
Rp1084
(dp1085
g14
I00
sg32
I01
sg95
F1.479
sg15
I00
sbsg241
g0
(g242
g2
Ntp1086
Rp1087
(dp1088
g14
I00
sg32
I01
sg95
I00
sg15
I00
sbsg390
g0
(g252
g2
Ntp1089
Rp1090
(dp1091
g14
I00
sg32
I01
sg95
F0.0615
sg15
I00
sbsg394
g0
(g252
g2
Ntp1092
Rp1093
(dp1094
g14
I00
sg32
I01
sg95
F0.0597
sg15
I00
sbsg11
(lp1095
g236
ag319
ag241
ag390
ag394
ag246
asg246
g0
(g242
g2
Ntp1096
Rp1097
(dp1098
g14
I00
sg32
I01
sg95
I00
sg15
I00
sbsbag0
(g75
g2
Ntp1099
Rp1100
(dp1101
g14
I00
sg32
I01
sg15
I00
sg236
g0
(g91
g2
Ntp1102
Rp1103
(dp1104
g14
I00
sg32
I01
sg95
g408
sg15
I00
sbsg241
g0
(g242
g2
Ntp1105
Rp1106
(dp1107
g14
I00
sg32
I01
sg95
I01
sg15
I00
sbsg319
g0
(g252
g2
Ntp1108
Rp1109
(dp1110
g14
I00
sg32
I01
sg95
F1.479
sg15
I00
sbsg415
g0
(g252
g2
Ntp1111
Rp1112
(dp1113
g14
I00
sg32
I01
sg95
F0.0111
sg15
I00
sbsg419
g0
(g58
g2
Ntp1114
Rp1115
(dp1116
g14
I00
sg32
I01
sg15
I00
sg62
g423
sg64
g67
sg66
g67
sbsg11
(lp1117
g236
ag241
ag319
ag415
ag419
ag425
ag246
ag426
asg426
g0
(g58
g2
Ntp1118
Rp1119
(dp1120
g14
I00
sg32
I01
sg15
I00
sg62
g430
sg64
g67
sg66
g67
sbsg246
g0
(g242
g2
Ntp1121
Rp1122
(dp1123
g14
I00
sg32
I01
sg95
I00
sg15
I00
sbsg425
g0
(g252
g2
Ntp1124
Rp1125
(dp1126
g14
I00
sg32
I01
sg95
F0.0351
sg15
I00
sbsbag0
(g75
g2
Ntp1127
Rp1128
(dp1129
g14
I00
sg32
I01
sg15
I00
sg236
g0
(g91
g2
Ntp1130
Rp1131
(dp1132
g14
I00
sg32
I01
sg95
g443
sg15
I00
sbsg241
g0
(g242
g2
Ntp1133
Rp1134
(dp1135
g14
I00
sg32
I01
sg95
I01
sg15
I00
sbsg319
g0
(g252
g2
Ntp1136
Rp1137
(dp1138
g14
I00
sg32
I01
sg95
F1.479
sg15
I00
sbsg450
g0
(g252
g2
Ntp1139
Rp1140
(dp1141
g14
I00
sg32
I01
sg95
F0.417
sg15
I00
sbsg454
g0
(g252
g2
Ntp1142
Rp1143
(dp1144
g14
I00
sg32
I01
sg95
F0.0466
sg15
I00
sbsg419
g0
(g58
g2
Ntp1145
Rp1146
(dp1147
g14
I00
sg32
I01
sg15
I00
sg62
g423
sg64
g67
sg66
g67
sbsg11
(lp1148
g236
ag241
ag319
ag450
ag454
ag419
ag246
ag426
asg246
g0
(g242
g2
Ntp1149
Rp1150
(dp1151
g14
I00
sg32
I01
sg95
I00
sg15
I00
sbsg426
g0
(g58
g2
Ntp1152
Rp1153
(dp1154
g14
I00
sg32
I01
sg15
I00
sg62
g430
sg64
g67
sg66
g67
sbsbag0
(g75
g2
Ntp1155
Rp1156
(dp1157
g14
I00
sg32
I01
sg15
I00
sg236
g0
(g91
g2
Ntp1158
Rp1159
(dp1160
g14
I00
sg32
I01
sg95
g474
sg15
I00
sbsg319
g0
(g252
g2
Ntp1161
Rp1162
(dp1163
g14
I00
sg32
I01
sg95
F1.479
sg15
I00
sbsg241
g0
(g242
g2
Ntp1164
Rp1165
(dp1166
g14
I00
sg32
I01
sg95
I00
sg15
I00
sbsg481
g0
(g252
g2
Ntp1167
Rp1168
(dp1169
g14
I00
sg32
I01
sg95
F0.012
sg15
I00
sbsg485
g0
(g252
g2
Ntp1170
Rp1171
(dp1172
g14
I00
sg32
I01
sg95
F0.00999
sg15
I00
sbsg11
(lp1173
g236
ag319
ag241
ag481
ag485
ag246
asg246
g0
(g242
g2
Ntp1174
Rp1175
(dp1176
g14
I00
sg32
I01
sg95
I00
sg15
I00
sbsbag0
(g75
g2
Ntp1177
Rp1178
(dp1179
g14
I00
sg32
I01
sg15
I00
sg236
g0
(g91
g2
Ntp1180
Rp1181
(dp1182
g14
I00
sg32
I01
sg95
g499
sg15
I00
sbsg319
g0
(g252
g2
Ntp1183
Rp1184
(dp1185
g14
I00
sg32
I01
sg95
F1.479
sg15
I00
sbsg503
g0
(g252
g2
Ntp1186
Rp1187
(dp1188
g14
I00
sg32
I01
sg95
F0.0646
sg15
I00
sbsg507
g0
(g252
g2
Ntp1189
Rp1190
(dp1191
g14
I00
sg32
I01
sg95
F20.0
sg15
I00
sbsg511
g0
(g252
g2
Ntp1192
Rp1193
(dp1194
g14
I00
sg32
I01
sg95
F0.0646
sg15
I00
sbsg515
g0
(g252
g2
Ntp1195
Rp1196
(dp1197
g14
I00
sg32
I01
sg95
F0.0354
sg15
I00
sbsg241
g0
(g242
g2
Ntp1198
Rp1199
(dp1200
g14
I00
sg32
I01
sg95
I01
sg15
I00
sbsg522
g0
(g58
g2
Ntp1201
Rp1202
(dp1203
g14
I00
sg32
I01
sg15
I00
sg62
g526
sg64
g67
sg66
g67
sbsg11
(lp1204
g236
ag319
ag503
ag507
ag511
ag515
ag241
ag522
ag528
ag529
ag246
ag530
asg529
g0
(g242
g2
Ntp1205
Rp1206
(dp1207
g14
I00
sg32
I01
sg95
I01
sg15
I00
sbsg528
g0
(g534
g2
Ntp1208
Rp1209
(dp1210
g14
I00
sg32
I01
sg95
g538
sg15
I00
sbsg246
g0
(g242
g2
Ntp1211
Rp1212
(dp1213
g14
I00
sg32
I01
sg95
I00
sg15
I00
sbsg530
g0
(g252
g2
Ntp1214
Rp1215
(dp1216
g14
I00
sg32
I01
sg95
F0.0354
sg15
I00
sbsbag0
(g75
g2
Ntp1217
Rp1218
(dp1219
g14
I00
sg32
I01
sg548
g0
(g58
g2
Ntp1220
Rp1221
(dp1222
g14
I00
sg32
I01
sg15
I00
sg62
g111
sg64
g67
sg66
g67
sbsg15
I00
sg236
g0
(g91
g2
Ntp1223
Rp1224
(dp1225
g14
I00
sg32
I01
sg95
g555
sg15
I00
sbsg241
g0
(g242
g2
Ntp1226
Rp1227
(dp1228
g14
I00
sg32
I01
sg95
I01
sg15
I00
sbsg246
g0
(g242
g2
Ntp1229
Rp1230
(dp1231
g14
I00
sg32
I01
sg95
I00
sg15
I00
sbsg562
g0
(g58
g2
Ntp1232
Rp1233
(dp1234
g14
I00
sg32
I01
sg15
I00
sg62
g116
sg64
g67
sg66
g67
sbsg566
g0
(g58
g2
Ntp1235
Rp1236
(dp1237
g14
I00
sg32
I01
sg15
I00
sg62
S'reducedEgamma'
p1238
sg64
g67
sg66
S'reducedConversions'
p1239
sbsg11
(lp1240
g548
ag236
ag241
ag246
ag566
ag562
asbag0
(g75
g2
Ntp1241
Rp1242
(dp1243
g14
I00
sg32
I01
sg15
I00
sg236
g0
(g91
g2
Ntp1244
Rp1245
(dp1246
g14
I00
sg32
I01
sg95
g579
sg15
I00
sbsg319
g0
(g252
g2
Ntp1247
Rp1248
(dp1249
g14
I00
sg32
I01
sg95
F1.479
sg15
I00
sbsg241
g0
(g242
g2
Ntp1250
Rp1251
(dp1252
g14
I00
sg32
I01
sg95
I00
sg15
I00
sbsg11
(lp1253
g236
ag319
ag241
ag587
ag588
ag246
asg587
g0
(g589
g2
Ntp1254
Rp1255
(dp1256
g14
I00
sg32
I01
sg95
I1
sg15
I00
sbsg588
g0
(g589
g2
Ntp1257
Rp1258
(dp1259
g14
I00
sg32
I01
sg95
I2
sg15
I00
sbsg246
g0
(g242
g2
Ntp1260
Rp1261
(dp1262
g14
I00
sg32
I01
sg95
I00
sg15
I00
sbsbatp1263
Rp1264
(dp1265
g14
I00
sg32
I01
sg15
I00
sg33
I1
sbsg11
(lp1266
g226
ag231
asbsg15
I00
sg603
g0
(g91
g2
Ntp1267
Rp1268
(dp1269
g14
I00
sg32
I01
sg95
S'4e13b87c0573d3c8ebf91d446fa1d90f'
p1270
sg15
I00
sbsg608
g0
(g242
g2
Ntp1271
Rp1272
(dp1273
g14
I00
sg32
I00
sg95
I01
sg15
I00
sbsg11
(lp1274
g222
ag603
ag608
asbag0
(g75
g2
Ntp1275
Rp1276
(dp1277
g14
I00
sg32
I01
sg222
g0
(g75
g2
Ntp1278
Rp1279
(dp1280
g14
I00
sg32
I01
sg15
I01
sg226
g0
(g91
g2
Ntp1281
Rp1282
(dp1283
g14
I00
sg32
I01
sg95
S'cutBasedElectronID-Spring15-25ns-V1-standalone-veto'
p1284
sg15
I00
sbsg231
g0
(g73
g20
(lp1285
g0
(g75
g2
Ntp1286
Rp1287
(dp1288
g14
I00
sg32
I01
sg15
I00
sg236
g0
(g91
g2
Ntp1289
Rp1290
(dp1291
g14
I00
sg32
I01
sg95
g240
sg15
I00
sbsg241
g0
(g242
g2
Ntp1292
Rp1293
(dp1294
g14
I00
sg32
I01
sg95
I00
sg15
I00
sbsg246
g0
(g242
g2
Ntp1295
Rp1296
(dp1297
g14
I00
sg32
I01
sg95
I00
sg15
I00
sbsg11
(lp1298
g241
ag251
ag236
ag246
asg251
g0
(g252
g2
Ntp1299
Rp1300
(dp1301
g14
I00
sg32
I01
sg95
F5.0
sg15
I00
sbsbag0
(g75
g2
Ntp1302
Rp1303
(dp1304
g14
I00
sg32
I01
sg15
I00
sg236
g0
(g91
g2
Ntp1305
Rp1306
(dp1307
g14
I00
sg32
I01
sg95
g262
sg15
I00
sbsg241
g0
(g242
g2
Ntp1308
Rp1309
(dp1310
g14
I00
sg32
I01
sg95
I00
sg15
I00
sbsg246
g0
(g242
g2
Ntp1311
Rp1312
(dp1313
g14
I00
sg32
I01
sg95
I00
sg15
I00
sbsg269
g0
(g73
g20
(lp1314
g0
(g75
g2
Ntp1315
Rp1316
(dp1317
g14
I00
sg32
I01
sg15
I00
sg274
g0
(g252
g2
Ntp1318
Rp1319
(dp1320
g14
I00
sg32
I01
sg95
F1.479
sg15
I00
sbsg278
g0
(g252
g2
Ntp1321
Rp1322
(dp1323
g14
I00
sg32
I01
sg95
F0.0
sg15
I00
sbsg11
(lp1324
g274
ag278
asbag0
(g75
g2
Ntp1325
Rp1326
(dp1327
g14
I00
sg32
I01
sg15
I00
sg274
g0
(g252
g2
Ntp1328
Rp1329
(dp1330
g14
I00
sg32
I01
sg95
F2.5
sg15
I00
sbsg278
g0
(g252
g2
Ntp1331
Rp1332
(dp1333
g14
I00
sg32
I01
sg95
F1.479
sg15
I00
sbsg11
(lp1334
g274
ag278
asbatp1335
Rp1336
(dp1337
g14
I00
sg32
I01
sg15
I00
sg33
I1
sbsg11
(lp1338
g241
ag297
ag236
ag269
ag246
asg297
g0
(g242
g2
Ntp1339
Rp1340
(dp1341
g14
I00
sg32
I01
sg95
I01
sg15
I00
sbsbag0
(g75
g2
Ntp1342
Rp1343
(dp1344
g14
I00
sg32
I01
sg15
I00
sg236
g0
(g91
g2
Ntp1345
Rp1346
(dp1347
g14
I00
sg32
I01
sg95
g307
sg15
I00
sbsg241
g0
(g242
g2
Ntp1348
Rp1349
(dp1350
g14
I00
sg32
I01
sg95
I00
sg15
I00
sbsg311
g0
(g252
g2
Ntp1351
Rp1352
(dp1353
g14
I00
sg32
I01
sg95
F0.0152
sg15
I00
sbsg315
g0
(g252
g2
Ntp1354
Rp1355
(dp1356
g14
I00
sg32
I01
sg95
F0.0113
sg15
I00
sbsg319
g0
(g252
g2
Ntp1357
Rp1358
(dp1359
g14
I00
sg32
I01
sg95
F1.479
sg15
I00
sbsg11
(lp1360
g236
ag241
ag311
ag315
ag319
ag246
asg246
g0
(g242
g2
Ntp1361
Rp1362
(dp1363
g14
I00
sg32
I01
sg95
I00
sg15
I00
sbsbag0
(g75
g2
Ntp1364
Rp1365
(dp1366
g14
I00
sg32
I01
sg15
I00
sg236
g0
(g91
g2
Ntp1367
Rp1368
(dp1369
g14
I00
sg32
I01
sg95
g333
sg15
I00
sbsg241
g0
(g242
g2
Ntp1370
Rp1371
(dp1372
g14
I00
sg32
I01
sg95
I00
sg15
I00
sbsg337
g0
(g252
g2
Ntp1373
Rp1374
(dp1375
g14
I00
sg32
I01
sg95
F0.216
sg15
I00
sbsg319
g0
(g252
g2
Ntp1376
Rp1377
(dp1378
g14
I00
sg32
I01
sg95
F1.479
sg15
I00
sbsg344
g0
(g252
g2
Ntp1379
Rp1380
(dp1381
g14
I00
sg32
I01
sg95
F0.237
sg15
I00
sbsg11
(lp1382
g236
ag241
ag337
ag319
ag344
ag246
asg246
g0
(g242
g2
Ntp1383
Rp1384
(dp1385
g14
I00
sg32
I01
sg95
I00
sg15
I00
sbsbag0
(g75
g2
Ntp1386
Rp1387
(dp1388
g14
I00
sg32
I01
sg15
I00
sg236
g0
(g91
g2
Ntp1389
Rp1390
(dp1391
g14
I00
sg32
I01
sg95
g358
sg15
I00
sbsg319
g0
(g252
g2
Ntp1392
Rp1393
(dp1394
g14
I00
sg32
I01
sg95
F1.479
sg15
I00
sbsg241
g0
(g242
g2
Ntp1395
Rp1396
(dp1397
g14
I00
sg32
I01
sg95
I00
sg15
I00
sbsg365
g0
(g252
g2
Ntp1398
Rp1399
(dp1400
g14
I00
sg32
I01
sg95
F0.0114
sg15
I00
sbsg11
(lp1401
g236
ag319
ag241
ag246
ag370
ag365
asg370
g0
(g252
g2
Ntp1402
Rp1403
(dp1404
g14
I00
sg32
I01
sg95
F0.0352
sg15
I00
sbsg246
g0
(g242
g2
Ntp1405
Rp1406
(dp1407
g14
I00
sg32
I01
sg95
I00
sg15
I00
sbsbag0
(g75
g2
Ntp1408
Rp1409
(dp1410
g14
I00
sg32
I01
sg15
I00
sg236
g0
(g91
g2
Ntp1411
Rp1412
(dp1413
g14
I00
sg32
I01
sg95
g383
sg15
I00
sbsg319
g0
(g252
g2
Ntp1414
Rp1415
(dp1416
g14
I00
sg32
I01
sg95
F1.479
sg15
I00
sbsg241
g0
(g242
g2
Ntp1417
Rp1418
(dp1419
g14
I00
sg32
I01
sg95
I00
sg15
I00
sbsg390
g0
(g252
g2
Ntp1420
Rp1421
(dp1422
g14
I00
sg32
I01
sg95
F0.116
sg15
I00
sbsg394
g0
(g252
g2
Ntp1423
Rp1424
(dp1425
g14
I00
sg32
I01
sg95
F0.181
sg15
I00
sbsg11
(lp1426
g236
ag319
ag241
ag390
ag394
ag246
asg246
g0
(g242
g2
Ntp1427
Rp1428
(dp1429
g14
I00
sg32
I01
sg95
I00
sg15
I00
sbsbag0
(g75
g2
Ntp1430
Rp1431
(dp1432
g14
I00
sg32
I01
sg15
I00
sg236
g0
(g91
g2
Ntp1433
Rp1434
(dp1435
g14
I00
sg32
I01
sg95
g408
sg15
I00
sbsg241
g0
(g242
g2
Ntp1436
Rp1437
(dp1438
g14
I00
sg32
I01
sg95
I01
sg15
I00
sbsg319
g0
(g252
g2
Ntp1439
Rp1440
(dp1441
g14
I00
sg32
I01
sg95
F1.479
sg15
I00
sbsg415
g0
(g252
g2
Ntp1442
Rp1443
(dp1444
g14
I00
sg32
I01
sg95
F0.0564
sg15
I00
sbsg419
g0
(g58
g2
Ntp1445
Rp1446
(dp1447
g14
I00
sg32
I01
sg15
I00
sg62
g423
sg64
g67
sg66
g67
sbsg11
(lp1448
g236
ag241
ag319
ag415
ag419
ag425
ag246
ag426
asg426
g0
(g58
g2
Ntp1449
Rp1450
(dp1451
g14
I00
sg32
I01
sg15
I00
sg62
g430
sg64
g67
sg66
g67
sbsg246
g0
(g242
g2
Ntp1452
Rp1453
(dp1454
g14
I00
sg32
I01
sg95
I00
sg15
I00
sbsg425
g0
(g252
g2
Ntp1455
Rp1456
(dp1457
g14
I00
sg32
I01
sg95
F0.222
sg15
I00
sbsbag0
(g75
g2
Ntp1458
Rp1459
(dp1460
g14
I00
sg32
I01
sg15
I00
sg236
g0
(g91
g2
Ntp1461
Rp1462
(dp1463
g14
I00
sg32
I01
sg95
g443
sg15
I00
sbsg241
g0
(g242
g2
Ntp1464
Rp1465
(dp1466
g14
I00
sg32
I01
sg95
I01
sg15
I00
sbsg319
g0
(g252
g2
Ntp1467
Rp1468
(dp1469
g14
I00
sg32
I01
sg95
F1.479
sg15
I00
sbsg450
g0
(g252
g2
Ntp1470
Rp1471
(dp1472
g14
I00
sg32
I01
sg95
F0.921
sg15
I00
sbsg454
g0
(g252
g2
Ntp1473
Rp1474
(dp1475
g14
I00
sg32
I01
sg95
F0.472
sg15
I00
sbsg419
g0
(g58
g2
Ntp1476
Rp1477
(dp1478
g14
I00
sg32
I01
sg15
I00
sg62
g423
sg64
g67
sg66
g67
sbsg11
(lp1479
g236
ag241
ag319
ag450
ag454
ag419
ag246
ag426
asg246
g0
(g242
g2
Ntp1480
Rp1481
(dp1482
g14
I00
sg32
I01
sg95
I00
sg15
I00
sbsg426
g0
(g58
g2
Ntp1483
Rp1484
(dp1485
g14
I00
sg32
I01
sg15
I00
sg62
g430
sg64
g67
sg66
g67
sbsbag0
(g75
g2
Ntp1486
Rp1487
(dp1488
g14
I00
sg32
I01
sg15
I00
sg236
g0
(g91
g2
Ntp1489
Rp1490
(dp1491
g14
I00
sg32
I01
sg95
g474
sg15
I00
sbsg319
g0
(g252
g2
Ntp1492
Rp1493
(dp1494
g14
I00
sg32
I01
sg95
F1.479
sg15
I00
sbsg241
g0
(g242
g2
Ntp1495
Rp1496
(dp1497
g14
I00
sg32
I01
sg95
I00
sg15
I00
sbsg481
g0
(g252
g2
Ntp1498
Rp1499
(dp1500
g14
I00
sg32
I01
sg95
F0.207
sg15
I00
sbsg485
g0
(g252
g2
Ntp1501
Rp1502
(dp1503
g14
I00
sg32
I01
sg95
F0.174
sg15
I00
sbsg11
(lp1504
g236
ag319
ag241
ag481
ag485
ag246
asg246
g0
(g242
g2
Ntp1505
Rp1506
(dp1507
g14
I00
sg32
I01
sg95
I00
sg15
I00
sbsbag0
(g75
g2
Ntp1508
Rp1509
(dp1510
g14
I00
sg32
I01
sg15
I00
sg236
g0
(g91
g2
Ntp1511
Rp1512
(dp1513
g14
I00
sg32
I01
sg95
g499
sg15
I00
sbsg319
g0
(g252
g2
Ntp1514
Rp1515
(dp1516
g14
I00
sg32
I01
sg95
F1.479
sg15
I00
sbsg503
g0
(g252
g2
Ntp1517
Rp1518
(dp1519
g14
I00
sg32
I01
sg95
F0.144
sg15
I00
sbsg507
g0
(g252
g2
Ntp1520
Rp1521
(dp1522
g14
I00
sg32
I01
sg95
F20.0
sg15
I00
sbsg511
g0
(g252
g2
Ntp1523
Rp1524
(dp1525
g14
I00
sg32
I01
sg95
F0.144
sg15
I00
sbsg515
g0
(g252
g2
Ntp1526
Rp1527
(dp1528
g14
I00
sg32
I01
sg95
F0.126
sg15
I00
sbsg241
g0
(g242
g2
Ntp1529
Rp1530
(dp1531
g14
I00
sg32
I01
sg95
I01
sg15
I00
sbsg522
g0
(g58
g2
Ntp1532
Rp1533
(dp1534
g14
I00
sg32
I01
sg15
I00
sg62
g526
sg64
g67
sg66
g67
sbsg11
(lp1535
g236
ag319
ag503
ag507
ag511
ag515
ag241
ag522
ag528
ag529
ag246
ag530
asg529
g0
(g242
g2
Ntp1536
Rp1537
(dp1538
g14
I00
sg32
I01
sg95
I01
sg15
I00
sbsg528
g0
(g534
g2
Ntp1539
Rp1540
(dp1541
g14
I00
sg32
I01
sg95
g538
sg15
I00
sbsg246
g0
(g242
g2
Ntp1542
Rp1543
(dp1544
g14
I00
sg32
I01
sg95
I00
sg15
I00
sbsg530
g0
(g252
g2
Ntp1545
Rp1546
(dp1547
g14
I00
sg32
I01
sg95
F0.126
sg15
I00
sbsbag0
(g75
g2
Ntp1548
Rp1549
(dp1550
g14
I00
sg32
I01
sg548
g0
(g58
g2
Ntp1551
Rp1552
(dp1553
g14
I00
sg32
I01
sg15
I00
sg62
g111
sg64
g67
sg66
g67
sbsg15
I00
sg236
g0
(g91
g2
Ntp1554
Rp1555
(dp1556
g14
I00
sg32
I01
sg95
g555
sg15
I00
sbsg241
g0
(g242
g2
Ntp1557
Rp1558
(dp1559
g14
I00
sg32
I01
sg95
I01
sg15
I00
sbsg246
g0
(g242
g2
Ntp1560
Rp1561
(dp1562
g14
I00
sg32
I01
sg95
I00
sg15
I00
sbsg562
g0
(g58
g2
Ntp1563
Rp1564
(dp1565
g14
I00
sg32
I01
sg15
I00
sg62
g116
sg64
g67
sg66
g67
sbsg566
g0
(g58
g2
Ntp1566
Rp1567
(dp1568
g14
I00
sg32
I01
sg15
I00
sg62
S'reducedEgamma'
p1569
sg64
g67
sg66
S'reducedConversions'
p1570
sbsg11
(lp1571
g548
ag236
ag241
ag246
ag566
ag562
asbag0
(g75
g2
Ntp1572
Rp1573
(dp1574
g14
I00
sg32
I01
sg15
I00
sg236
g0
(g91
g2
Ntp1575
Rp1576
(dp1577
g14
I00
sg32
I01
sg95
g579
sg15
I00
sbsg319
g0
(g252
g2
Ntp1578
Rp1579
(dp1580
g14
I00
sg32
I01
sg95
F1.479
sg15
I00
sbsg241
g0
(g242
g2
Ntp1581
Rp1582
(dp1583
g14
I00
sg32
I01
sg95
I00
sg15
I00
sbsg11
(lp1584
g236
ag319
ag241
ag587
ag588
ag246
asg587
g0
(g589
g2
Ntp1585
Rp1586
(dp1587
g14
I00
sg32
I01
sg95
I3
sg15
I00
sbsg588
g0
(g589
g2
Ntp1588
Rp1589
(dp1590
g14
I00
sg32
I01
sg95
I2
sg15
I00
sbsg246
g0
(g242
g2
Ntp1591
Rp1592
(dp1593
g14
I00
sg32
I01
sg95
I00
sg15
I00
sbsbatp1594
Rp1595
(dp1596
g14
I00
sg32
I01
sg15
I00
sg33
I1
sbsg11
(lp1597
g226
ag231
asbsg15
I00
sg603
g0
(g91
g2
Ntp1598
Rp1599
(dp1600
g14
I00
sg32
I01
sg95
S'202030579ee3eec90fdc2d236ba3de7e'
p1601
sg15
I00
sbsg608
g0
(g242
g2
Ntp1602
Rp1603
(dp1604
g14
I00
sg32
I00
sg95
I01
sg15
I00
sbsg11
(lp1605
g222
ag603
ag608
asbag0
(g75
g2
Ntp1606
Rp1607
(dp1608
g14
I00
sg32
I01
sg222
g0
(g75
g2
Ntp1609
Rp1610
(dp1611
g14
I00
sg32
I01
sg15
I01
sg226
g0
(g91
g2
Ntp1612
Rp1613
(dp1614
g14
I00
sg32
I01
sg95
S'heepElectronID-HEEPV60'
p1615
sg15
I00
sbsg231
g0
(g73
g20
(lp1616
g0
(g75
g2
Ntp1617
Rp1618
(dp1619
g14
I00
sg32
I01
sg15
I00
sg236
g0
(g91
g2
Ntp1620
Rp1621
(dp1622
g14
I00
sg32
I01
sg95
g240
sg15
I00
sbsg241
g0
(g242
g2
Ntp1623
Rp1624
(dp1625
g14
I00
sg32
I01
sg95
I00
sg15
I00
sbsg246
g0
(g242
g2
Ntp1626
Rp1627
(dp1628
g14
I00
sg32
I01
sg95
I00
sg15
I00
sbsg11
(lp1629
g241
ag251
ag236
ag246
asg251
g0
(g252
g2
Ntp1630
Rp1631
(dp1632
g14
I00
sg32
I01
sg95
F35.0
sg15
I00
sbsbag0
(g75
g2
Ntp1633
Rp1634
(dp1635
g14
I00
sg32
I01
sg15
I00
sg236
g0
(g91
g2
Ntp1636
Rp1637
(dp1638
g14
I00
sg32
I01
sg95
g262
sg15
I00
sbsg241
g0
(g242
g2
Ntp1639
Rp1640
(dp1641
g14
I00
sg32
I01
sg95
I00
sg15
I00
sbsg246
g0
(g242
g2
Ntp1642
Rp1643
(dp1644
g14
I00
sg32
I01
sg95
I00
sg15
I00
sbsg269
g0
(g73
g20
(lp1645
g0
(g75
g2
Ntp1646
Rp1647
(dp1648
g14
I00
sg32
I01
sg15
I00
sg274
g0
(g252
g2
Ntp1649
Rp1650
(dp1651
g14
I00
sg32
I01
sg95
F1.4442
sg15
I00
sbsg278
g0
(g252
g2
Ntp1652
Rp1653
(dp1654
g14
I00
sg32
I01
sg95
F0.0
sg15
I00
sbsg11
(lp1655
g274
ag278
asbag0
(g75
g2
Ntp1656
Rp1657
(dp1658
g14
I00
sg32
I01
sg15
I00
sg274
g0
(g252
g2
Ntp1659
Rp1660
(dp1661
g14
I00
sg32
I01
sg95
F2.5
sg15
I00
sbsg278
g0
(g252
g2
Ntp1662
Rp1663
(dp1664
g14
I00
sg32
I01
sg95
F1.566
sg15
I00
sbsg11
(lp1665
g274
ag278
asbatp1666
Rp1667
(dp1668
g14
I00
sg32
I01
sg15
I00
sg33
I1
sbsg11
(lp1669
g241
ag297
ag236
ag269
ag246
asg297
g0
(g242
g2
Ntp1670
Rp1671
(dp1672
g14
I00
sg32
I01
sg95
I01
sg15
I00
sbsbag0
(g75
g2
Ntp1673
Rp1674
(dp1675
g14
I00
sg32
I01
sg15
I00
sg236
g0
(g91
g2
Ntp1676
Rp1677
(dp1678
g14
I00
sg32
I01
sg95
S'GsfEleDEtaInSeedCut'
p1679
sg15
I00
sbsg319
g0
(g252
g2
Ntp1680
Rp1681
(dp1682
g14
I00
sg32
I01
sg95
F1.479
sg15
I00
sbsS'dEtaInSeedCutValueEB'
p1683
g0
(g252
g2
Ntp1684
Rp1685
(dp1686
g14
I00
sg32
I01
sg95
F0.004
sg15
I00
sbsg241
g0
(g242
g2
Ntp1687
Rp1688
(dp1689
g14
I00
sg32
I01
sg95
I00
sg15
I00
sbsS'dEtaInSeedCutValueEE'
p1690
g0
(g252
g2
Ntp1691
Rp1692
(dp1693
g14
I00
sg32
I01
sg95
F0.006
sg15
I00
sbsg11
(lp1694
g236
ag319
ag1683
ag241
ag1690
ag246
asg246
g0
(g242
g2
Ntp1695
Rp1696
(dp1697
g14
I00
sg32
I01
sg95
I00
sg15
I00
sbsbag0
(g75
g2
Ntp1698
Rp1699
(dp1700
g14
I00
sg32
I01
sg15
I00
sg236
g0
(g91
g2
Ntp1701
Rp1702
(dp1703
g14
I00
sg32
I01
sg95
g333
sg15
I00
sbsg241
g0
(g242
g2
Ntp1704
Rp1705
(dp1706
g14
I00
sg32
I01
sg95
I00
sg15
I00
sbsg337
g0
(g252
g2
Ntp1707
Rp1708
(dp1709
g14
I00
sg32
I01
sg95
F0.06
sg15
I00
sbsg319
g0
(g252
g2
Ntp1710
Rp1711
(dp1712
g14
I00
sg32
I01
sg95
F1.479
sg15
I00
sbsg344
g0
(g252
g2
Ntp1713
Rp1714
(dp1715
g14
I00
sg32
I01
sg95
F0.06
sg15
I00
sbsg11
(lp1716
g236
ag241
ag337
ag319
ag344
ag246
asg246
g0
(g242
g2
Ntp1717
Rp1718
(dp1719
g14
I00
sg32
I01
sg95
I00
sg15
I00
sbsbag0
(g75
g2
Ntp1720
Rp1721
(dp1722
g14
I00
sg32
I01
sg15
I00
sg236
g0
(g91
g2
Ntp1723
Rp1724
(dp1725
g14
I00
sg32
I01
sg95
g358
sg15
I00
sbsg319
g0
(g252
g2
Ntp1726
Rp1727
(dp1728
g14
I00
sg32
I01
sg95
F1.479
sg15
I00
sbsg241
g0
(g242
g2
Ntp1729
Rp1730
(dp1731
g14
I00
sg32
I01
sg95
I00
sg15
I00
sbsg365
g0
(g252
g2
Ntp1732
Rp1733
(dp1734
g14
I00
sg32
I01
sg95
I9999
sg15
I00
sbsg11
(lp1735
g236
ag319
ag241
ag246
ag370
ag365
asg370
g0
(g252
g2
Ntp1736
Rp1737
(dp1738
g14
I00
sg32
I01
sg95
F0.03
sg15
I00
sbsg246
g0
(g242
g2
Ntp1739
Rp1740
(dp1741
g14
I00
sg32
I01
sg95
I00
sg15
I00
sbsbag0
(g75
g2
Ntp1742
Rp1743
(dp1744
g14
I00
sg32
I01
sg15
I00
sg236
g0
(g91
g2
Ntp1745
Rp1746
(dp1747
g14
I00
sg32
I01
sg95
S'GsfEleFull5x5E2x5OverE5x5Cut'
p1748
sg15
I00
sbsg241
g0
(g242
g2
Ntp1749
Rp1750
(dp1751
g14
I00
sg32
I01
sg95
I00
sg15
I00
sbsg246
g0
(g242
g2
Ntp1752
Rp1753
(dp1754
g14
I00
sg32
I01
sg95
I00
sg15
I00
sbsS'minE2x5OverE5x5EB'
p1755
g0
(g252
g2
Ntp1756
Rp1757
(dp1758
g14
I00
sg32
I01
sg95
F0.94
sg15
I00
sbsS'minE2x5OverE5x5EE'
p1759
g0
(g252
g2
Ntp1760
Rp1761
(dp1762
g14
I00
sg32
I01
sg95
F-1.0
sg15
I00
sbsg11
(lp1763
g236
ag241
ag246
ag1755
ag1759
aS'minE1x5OverE5x5EE'
p1764
aS'minE1x5OverE5x5EB'
p1765
asg1764
g0
(g252
g2
Ntp1766
Rp1767
(dp1768
g14
I00
sg32
I01
sg95
F-1.0
sg15
I00
sbsg1765
g0
(g252
g2
Ntp1769
Rp1770
(dp1771
g14
I00
sg32
I01
sg95
F0.83
sg15
I00
sbsbag0
(g75
g2
Ntp1772
Rp1773
(dp1774
g14
I00
sg32
I01
sg15
I00
sg236
g0
(g91
g2
Ntp1775
Rp1776
(dp1777
g14
I00
sg32
I01
sg95
S'GsfEleHadronicOverEMLinearCut'
p1778
sg15
I00
sbsg241
g0
(g242
g2
Ntp1779
Rp1780
(dp1781
g14
I00
sg32
I01
sg95
I00
sg15
I00
sbsg246
g0
(g242
g2
Ntp1782
Rp1783
(dp1784
g14
I00
sg32
I01
sg95
I00
sg15
I00
sbsS'constTermEE'
p1785
g0
(g252
g2
Ntp1786
Rp1787
(dp1788
g14
I00
sg32
I01
sg95
I5
sg15
I00
sbsS'slopeStartEE'
p1789
g0
(g252
g2
Ntp1790
Rp1791
(dp1792
g14
I00
sg32
I01
sg95
F0.0
sg15
I00
sbsS'constTermEB'
p1793
g0
(g252
g2
Ntp1794
Rp1795
(dp1796
g14
I00
sg32
I01
sg95
F1.0
sg15
I00
sbsS'slopeStartEB'
p1797
g0
(g252
g2
Ntp1798
Rp1799
(dp1800
g14
I00
sg32
I01
sg95
F0.0
sg15
I00
sbsg11
(lp1801
g236
ag241
ag246
ag1785
ag1793
aS'slopeTermEB'
p1802
ag1789
aS'slopeTermEE'
p1803
ag1797
asg1802
g0
(g252
g2
Ntp1804
Rp1805
(dp1806
g14
I00
sg32
I01
sg95
F0.05
sg15
I00
sbsg1803
g0
(g252
g2
Ntp1807
Rp1808
(dp1809
g14
I00
sg32
I01
sg95
F0.05
sg15
I00
sbsbag0
(g75
g2
Ntp1810
Rp1811
(dp1812
g14
I00
sg32
I01
sg15
I00
sg236
g0
(g91
g2
Ntp1813
Rp1814
(dp1815
g14
I00
sg32
I01
sg95
S'GsfEleTrkPtIsoCut'
p1816
sg15
I00
sbsg241
g0
(g242
g2
Ntp1817
Rp1818
(dp1819
g14
I00
sg32
I01
sg95
I00
sg15
I00
sbsg246
g0
(g242
g2
Ntp1820
Rp1821
(dp1822
g14
I00
sg32
I01
sg95
I00
sg15
I00
sbsg1785
g0
(g252
g2
Ntp1823
Rp1824
(dp1825
g14
I00
sg32
I01
sg95
F5.0
sg15
I00
sbsg1789
g0
(g252
g2
Ntp1826
Rp1827
(dp1828
g14
I00
sg32
I01
sg95
F0.0
sg15
I00
sbsg1793
g0
(g252
g2
Ntp1829
Rp1830
(dp1831
g14
I00
sg32
I01
sg95
F5.0
sg15
I00
sbsg1797
g0
(g252
g2
Ntp1832
Rp1833
(dp1834
g14
I00
sg32
I01
sg95
F0.0
sg15
I00
sbsg11
(lp1835
g236
ag241
ag246
ag1785
ag1793
ag1802
ag1789
ag1803
ag1797
asg1802
g0
(g252
g2
Ntp1836
Rp1837
(dp1838
g14
I00
sg32
I01
sg95
F0.0
sg15
I00
sbsg1803
g0
(g252
g2
Ntp1839
Rp1840
(dp1841
g14
I00
sg32
I01
sg95
F0.0
sg15
I00
sbsbag0
(g75
g2
Ntp1842
Rp1843
(dp1844
g14
I00
sg32
I01
sS'rhoConstant'
p1845
g0
(g252
g2
Ntp1846
Rp1847
(dp1848
g14
I00
sg32
I01
sg95
F0.28
sg15
I00
sbsg15
I00
sg236
g0
(g91
g2
Ntp1849
Rp1850
(dp1851
g14
I00
sg32
I01
sg95
S'GsfEleEmHadD1IsoRhoCut'
p1852
sg15
I00
sbsg241
g0
(g242
g2
Ntp1853
Rp1854
(dp1855
g14
I00
sg32
I01
sg95
I01
sg15
I00
sbsg1797
g0
(g252
g2
Ntp1856
Rp1857
(dp1858
g14
I00
sg32
I01
sg95
F0.0
sg15
I00
sbsg246
g0
(g242
g2
Ntp1859
Rp1860
(dp1861
g14
I00
sg32
I01
sg95
I00
sg15
I00
sbsg1785
g0
(g252
g2
Ntp1862
Rp1863
(dp1864
g14
I00
sg32
I01
sg95
F2.5
sg15
I00
sbsg1789
g0
(g252
g2
Ntp1865
Rp1866
(dp1867
g14
I00
sg32
I01
sg95
F50.0
sg15
I00
sbsg1793
g0
(g252
g2
Ntp1868
Rp1869
(dp1870
g14
I00
sg32
I01
sg95
F2.0
sg15
I00
sbsg522
g0
(g58
g2
Ntp1871
Rp1872
(dp1873
g14
I00
sg32
I01
sg15
I00
sg62
g526
sg64
g67
sg66
g67
sbsg11
(lp1874
g1845
ag236
ag241
ag246
ag1785
ag1793
ag522
ag1802
ag1789
ag1803
ag1797
asg1802
g0
(g252
g2
Ntp1875
Rp1876
(dp1877
g14
I00
sg32
I01
sg95
F0.03
sg15
I00
sbsg1803
g0
(g252
g2
Ntp1878
Rp1879
(dp1880
g14
I00
sg32
I01
sg95
F0.03
sg15
I00
sbsbag0
(g75
g2
Ntp1881
Rp1882
(dp1883
g14
I00
sg32
I01
sg15
I00
sg236
g0
(g91
g2
Ntp1884
Rp1885
(dp1886
g14
I00
sg32
I01
sg95
g408
sg15
I00
sbsg241
g0
(g242
g2
Ntp1887
Rp1888
(dp1889
g14
I00
sg32
I01
sg95
I01
sg15
I00
sbsg319
g0
(g252
g2
Ntp1890
Rp1891
(dp1892
g14
I00
sg32
I01
sg95
F1.479
sg15
I00
sbsg415
g0
(g252
g2
Ntp1893
Rp1894
(dp1895
g14
I00
sg32
I01
sg95
F0.02
sg15
I00
sbsg419
g0
(g58
g2
Ntp1896
Rp1897
(dp1898
g14
I00
sg32
I01
sg15
I00
sg62
g423
sg64
g67
sg66
g67
sbsg11
(lp1899
g236
ag241
ag319
ag415
ag419
ag425
ag246
ag426
asg426
g0
(g58
g2
Ntp1900
Rp1901
(dp1902
g14
I00
sg32
I01
sg15
I00
sg62
g430
sg64
g67
sg66
g67
sbsg246
g0
(g242
g2
Ntp1903
Rp1904
(dp1905
g14
I00
sg32
I01
sg95
I00
sg15
I00
sbsg425
g0
(g252
g2
Ntp1906
Rp1907
(dp1908
g14
I00
sg32
I01
sg95
F0.05
sg15
I00
sbsbag0
(g75
g2
Ntp1909
Rp1910
(dp1911
g14
I00
sg32
I01
sg15
I00
sg236
g0
(g91
g2
Ntp1912
Rp1913
(dp1914
g14
I00
sg32
I01
sg95
g579
sg15
I00
sbsg319
g0
(g252
g2
Ntp1915
Rp1916
(dp1917
g14
I00
sg32
I01
sg95
F1.479
sg15
I00
sbsg241
g0
(g242
g2
Ntp1918
Rp1919
(dp1920
g14
I00
sg32
I01
sg95
I00
sg15
I00
sbsg11
(lp1921
g236
ag319
ag241
ag587
ag588
ag246
asg587
g0
(g589
g2
Ntp1922
Rp1923
(dp1924
g14
I00
sg32
I01
sg95
I1
sg15
I00
sbsg588
g0
(g589
g2
Ntp1925
Rp1926
(dp1927
g14
I00
sg32
I01
sg95
I1
sg15
I00
sbsg246
g0
(g242
g2
Ntp1928
Rp1929
(dp1930
g14
I00
sg32
I01
sg95
I00
sg15
I00
sbsbag0
(g75
g2
Ntp1931
Rp1932
(dp1933
g14
I00
sg32
I01
sg15
I00
sg236
g0
(g91
g2
Ntp1934
Rp1935
(dp1936
g14
I00
sg32
I01
sg95
S'GsfEleEcalDrivenCut'
p1937
sg15
I00
sbsg319
g0
(g252
g2
Ntp1938
Rp1939
(dp1940
g14
I00
sg32
I01
sg95
F1.479
sg15
I00
sbsg241
g0
(g242
g2
Ntp1941
Rp1942
(dp1943
g14
I00
sg32
I01
sg95
I00
sg15
I00
sbsS'ecalDrivenEB'
p1944
g0
(cFWCore.ParameterSet.Types
int32
p1945
g2
Ntp1946
Rp1947
(dp1948
g14
I00
sg32
I01
sg95
I1
sg15
I00
sbsS'ecalDrivenEE'
p1949
g0
(g1945
g2
Ntp1950
Rp1951
(dp1952
g14
I00
sg32
I01
sg95
I1
sg15
I00
sbsg11
(lp1953
g236
ag319
ag241
ag1944
ag1949
ag246
asg246
g0
(g242
g2
Ntp1954
Rp1955
(dp1956
g14
I00
sg32
I01
sg95
I00
sg15
I00
sbsbatp1957
Rp1958
(dp1959
g14
I00
sg32
I01
sg15
I00
sg33
I1
sbsg11
(lp1960
g226
ag231
asbsg15
I00
sg603
g0
(g91
g2
Ntp1961
Rp1962
(dp1963
g14
I00
sg32
I01
sg95
S'df10ac7e3a9c22f63fa7936573beaafb'
p1964
sg15
I00
sbsg608
g0
(g242
g2
Ntp1965
Rp1966
(dp1967
g14
I00
sg32
I00
sg95
I01
sg15
I00
sbsg11
(lp1968
g222
ag603
ag608
asbag0
(g75
g2
Ntp1969
Rp1970
(dp1971
g14
I00
sg32
I01
sg222
g0
(g75
g2
Ntp1972
Rp1973
(dp1974
g14
I00
sg32
I01
sg15
I01
sg226
g0
(g91
g2
Ntp1975
Rp1976
(dp1977
g14
I00
sg32
I01
sg95
S'mvaEleID-Spring15-25ns-nonTrig-V1-wp80'
p1978
sg15
I00
sbsg231
g0
(g73
g20
(lp1979
g0
(g75
g2
Ntp1980
Rp1981
(dp1982
g14
I00
sg32
I01
sS'mvaValueMapName'
p1983
g0
(g58
g2
Ntp1984
Rp1985
(dp1986
g14
I00
sg32
I01
sg15
I00
sg62
S'electronMVAValueMapProducer'
p1987
sg64
g67
sg66
S'ElectronMVAEstimatorRun2Spring15NonTrig25nsV1Values'
p1988
sbsS'mvaCategoriesMapName'
p1989
g0
(g58
g2
Ntp1990
Rp1991
(dp1992
g14
I00
sg32
I01
sg15
I00
sg62
S'electronMVAValueMapProducer'
p1993
sg64
g67
sg66
S'ElectronMVAEstimatorRun2Spring15NonTrig25nsV1Categories'
p1994
sbsg236
g0
(g91
g2
Ntp1995
Rp1996
(dp1997
g14
I00
sg32
I01
sg95
S'GsfEleMVACut'
p1998
sg15
I00
sbsg241
g0
(g242
g2
Ntp1999
Rp2000
(dp2001
g14
I00
sg32
I01
sg95
I01
sg15
I00
sbsS'mvaCuts'
p2002
g0
(cFWCore.ParameterSet.Types
vdouble
p2003
g20
(lp2004
F0.287435
aF0.221846
aF-0.303263
aF0.967083
aF0.929117
aF0.726311
atp2005
Rp2006
(dp2007
g14
I00
sg32
I01
sg15
I00
sbsg246
g0
(g242
g2
Ntp2008
Rp2009
(dp2010
g14
I00
sg32
I01
sg95
I00
sg15
I00
sbsg11
(lp2011
g1983
ag1989
ag236
ag241
ag2002
ag246
asg15
I00
sbatp2012
Rp2013
(dp2014
g14
I00
sg32
I01
sg15
I00
sg33
I1
sbsg11
(lp2015
g226
ag231
asg34
S'mvaEleID_Spring15_25ns_nonTrig_V1_wp80'
p2016
sbsg15
I00
sg603
g0
(g91
g2
Ntp2017
Rp2018
(dp2019
g14
I00
sg32
I01
sg95
S'113c47ceaea0fa687b8bd6d880eb4957'
p2020
sg15
I00
sbsg608
g0
(g242
g2
Ntp2021
Rp2022
(dp2023
g14
I00
sg32
I00
sg95
I01
sg15
I00
sbsg11
(lp2024
g222
ag603
ag608
asbag0
(g75
g2
Ntp2025
Rp2026
(dp2027
g14
I00
sg32
I01
sg222
g0
(g75
g2
Ntp2028
Rp2029
(dp2030
g14
I00
sg32
I01
sg15
I01
sg226
g0
(g91
g2
Ntp2031
Rp2032
(dp2033
g14
I00
sg32
I01
sg95
S'mvaEleID-Spring15-25ns-nonTrig-V1-wp90'
p2034
sg15
I00
sbsg231
g0
(g73
g20
(lp2035
g0
(g75
g2
Ntp2036
Rp2037
(dp2038
g14
I00
sg32
I01
sg1983
g0
(g58
g2
Ntp2039
Rp2040
(dp2041
g14
I00
sg32
I01
sg15
I00
sg62
S'electronMVAValueMapProducer'
p2042
sg64
g67
sg66
S'ElectronMVAEstimatorRun2Spring15NonTrig25nsV1Values'
p2043
sbsg1989
g0
(g58
g2
Ntp2044
Rp2045
(dp2046
g14
I00
sg32
I01
sg15
I00
sg62
S'electronMVAValueMapProducer'
p2047
sg64
g67
sg66
S'ElectronMVAEstimatorRun2Spring15NonTrig25nsV1Categories'
p2048
sbsg236
g0
(g91
g2
Ntp2049
Rp2050
(dp2051
g14
I00
sg32
I01
sg95
g1998
sg15
I00
sbsg241
g0
(g242
g2
Ntp2052
Rp2053
(dp2054
g14
I00
sg32
I01
sg95
I01
sg15
I00
sbsg2002
g0
(g2003
g20
(lp2055
F-0.083313
aF-0.235222
aF-0.67099
aF0.913286
aF0.805013
aF0.358969
atp2056
Rp2057
(dp2058
g14
I00
sg32
I01
sg15
I00
sbsg246
g0
(g242
g2
Ntp2059
Rp2060
(dp2061
g14
I00
sg32
I01
sg95
I00
sg15
I00
sbsg11
(lp2062
g1983
ag1989
ag236
ag241
ag2002
ag246
asg15
I00
sbatp2063
Rp2064
(dp2065
g14
I00
sg32
I01
sg15
I00
sg33
I1
sbsg11
(lp2066
g226
ag231
asg34
S'mvaEleID_Spring15_25ns_nonTrig_V1_wp90'
p2067
sbsg15
I00
sg603
g0
(g91
g2
Ntp2068
Rp2069
(dp2070
g14
I00
sg32
I01
sg95
S'ac4fdc160eefe9eae7338601c02ed4bb'
p2071
sg15
I00
sbsg608
g0
(g242
g2
Ntp2072
Rp2073
(dp2074
g14
I00
sg32
I00
sg95
I01
sg15
I00
sbsg11
(lp2075
g222
ag603
ag608
asbag0
(g75
g2
Ntp2076
Rp2077
(dp2078
g14
I00
sg32
I01
sg222
g0
(g75
g2
Ntp2079
Rp2080
(dp2081
g14
I00
sg32
I01
sg15
I01
sg226
g0
(g91
g2
Ntp2082
Rp2083
(dp2084
g14
I00
sg32
I01
sg95
S'mvaEleID-Spring15-25ns-nonTrig-V1-wpLoose'
p2085
sg15
I00
sbsg231
g0
(g73
g20
(lp2086
g0
(g75
g2
Ntp2087
Rp2088
(dp2089
g14
I00
sg32
I01
sg1983
g0
(g58
g2
Ntp2090
Rp2091
(dp2092
g14
I00
sg32
I01
sg15
I00
sg62
S'electronMVAValueMapProducer'
p2093
sg64
g67
sg66
S'ElectronMVAEstimatorRun2Spring15NonTrig25nsV1Values'
p2094
sbsg1989
g0
(g58
g2
Ntp2095
Rp2096
(dp2097
g14
I00
sg32
I01
sg15
I00
sg62
S'electronMVAValueMapProducer'
p2098
sg64
g67
sg66
S'ElectronMVAEstimatorRun2Spring15NonTrig25nsV1Categories'
p2099
sbsg236
g0
(g91
g2
Ntp2100
Rp2101
(dp2102
g14
I00
sg32
I01
sg95
g1998
sg15
I00
sbsg241
g0
(g242
g2
Ntp2103
Rp2104
(dp2105
g14
I00
sg32
I01
sg95
I01
sg15
I00
sbsg2002
g0
(g2003
g20
(lp2106
F-0.265
aF-0.556
aF-0.551
aF-0.072
aF-0.286
aF-0.267
atp2107
Rp2108
(dp2109
g14
I00
sg32
I01
sg15
I00
sbsg246
g0
(g242
g2
Ntp2110
Rp2111
(dp2112
g14
I00
sg32
I01
sg95
I00
sg15
I00
sbsg11
(lp2113
g1983
ag1989
ag236
ag241
ag2002
ag246
asg15
I00
sbatp2114
Rp2115
(dp2116
g14
I00
sg32
I01
sg15
I00
sg33
I1
sbsg11
(lp2117
g226
ag231
asg34
S'mvaEleID_Spring15_25ns_nonTrig_V1_wpLoose'
p2118
sbsg15
I00
sg603
g0
(g91
g2
Ntp2119
Rp2120
(dp2121
g14
I00
sg32
I01
sg95
S'99ff36834c4342110d84ea2350a1229c'
p2122
sg15
I00
sbsg608
g0
(g242
g2
Ntp2123
Rp2124
(dp2125
g14
I00
sg32
I00
sg95
I01
sg15
I00
sbsg11
(lp2126
g222
ag603
ag608
asbag0
(g75
g2
Ntp2127
Rp2128
(dp2129
g14
I00
sg32
I01
sg222
g0
(g75
g2
Ntp2130
Rp2131
(dp2132
g14
I00
sg32
I01
sg15
I01
sg226
g0
(g91
g2
Ntp2133
Rp2134
(dp2135
g14
I00
sg32
I01
sg95
S'mvaEleID-Spring15-25ns-Trig-V1-wp80'
p2136
sg15
I00
sbsg231
g0
(g73
g20
(lp2137
g0
(g75
g2
Ntp2138
Rp2139
(dp2140
g14
I00
sg32
I01
sg1983
g0
(g58
g2
Ntp2141
Rp2142
(dp2143
g14
I00
sg32
I01
sg15
I00
sg62
S'electronMVAValueMapProducer'
p2144
sg64
g67
sg66
S'ElectronMVAEstimatorRun2Spring15Trig25nsV1Values'
p2145
sbsg1989
g0
(g58
g2
Ntp2146
Rp2147
(dp2148
g14
I00
sg32
I01
sg15
I00
sg62
S'electronMVAValueMapProducer'
p2149
sg64
g67
sg66
S'ElectronMVAEstimatorRun2Spring15Trig25nsV1Categories'
p2150
sbsg236
g0
(g91
g2
Ntp2151
Rp2152
(dp2153
g14
I00
sg32
I01
sg95
g1998
sg15
I00
sbsg241
g0
(g242
g2
Ntp2154
Rp2155
(dp2156
g14
I00
sg32
I01
sg95
I01
sg15
I00
sbsg2002
g0
(g2003
g20
(lp2157
F0.988153
aF0.96791
aF0.841729
atp2158
Rp2159
(dp2160
g14
I00
sg32
I01
sg15
I00
sbsg246
g0
(g242
g2
Ntp2161
Rp2162
(dp2163
g14
I00
sg32
I01
sg95
I00
sg15
I00
sbsg11
(lp2164
g1983
ag1989
ag236
ag241
ag2002
ag246
asg15
I00
sbatp2165
Rp2166
(dp2167
g14
I00
sg32
I01
sg15
I00
sg33
I1
sbsg11
(lp2168
g226
ag231
asg34
S'mvaEleID_Spring15_25ns_Trig_V1_wp80'
p2169
sbsg15
I00
sg603
g0
(g91
g2
Ntp2170
Rp2171
(dp2172
g14
I00
sg32
I01
sg95
S'81046ab478185af337be1be9b30948ae'
p2173
sg15
I00
sbsg608
g0
(g242
g2
Ntp2174
Rp2175
(dp2176
g14
I00
sg32
I00
sg95
I01
sg15
I00
sbsg11
(lp2177
g222
ag603
ag608
asbag0
(g75
g2
Ntp2178
Rp2179
(dp2180
g14
I00
sg32
I01
sg222
g0
(g75
g2
Ntp2181
Rp2182
(dp2183
g14
I00
sg32
I01
sg15
I01
sg226
g0
(g91
g2
Ntp2184
Rp2185
(dp2186
g14
I00
sg32
I01
sg95
S'mvaEleID-Spring15-25ns-Trig-V1-wp90'
p2187
sg15
I00
sbsg231
g0
(g73
g20
(lp2188
g0
(g75
g2
Ntp2189
Rp2190
(dp2191
g14
I00
sg32
I01
sg1983
g0
(g58
g2
Ntp2192
Rp2193
(dp2194
g14
I00
sg32
I01
sg15
I00
sg62
S'electronMVAValueMapProducer'
p2195
sg64
g67
sg66
S'ElectronMVAEstimatorRun2Spring15Trig25nsV1Values'
p2196
sbsg1989
g0
(g58
g2
Ntp2197
Rp2198
(dp2199
g14
I00
sg32
I01
sg15
I00
sg62
S'electronMVAValueMapProducer'
p2200
sg64
g67
sg66
S'ElectronMVAEstimatorRun2Spring15Trig25nsV1Categories'
p2201
sbsg236
g0
(g91
g2
Ntp2202
Rp2203
(dp2204
g14
I00
sg32
I01
sg95
g1998
sg15
I00
sbsg241
g0
(g242
g2
Ntp2205
Rp2206
(dp2207
g14
I00
sg32
I01
sg95
I01
sg15
I00
sbsg2002
g0
(g2003
g20
(lp2208
F0.972153
aF0.922126
aF0.610764
atp2209
Rp2210
(dp2211
g14
I00
sg32
I01
sg15
I00
sbsg246
g0
(g242
g2
Ntp2212
Rp2213
(dp2214
g14
I00
sg32
I01
sg95
I00
sg15
I00
sbsg11
(lp2215
g1983
ag1989
ag236
ag241
ag2002
ag246
asg15
I00
sbatp2216
Rp2217
(dp2218
g14
I00
sg32
I01
sg15
I00
sg33
I1
sbsg11
(lp2219
g226
ag231
asg34
S'mvaEleID_Spring15_25ns_Trig_V1_wp90'
p2220
sbsg15
I00
sg603
g0
(g91
g2
Ntp2221
Rp2222
(dp2223
g14
I00
sg32
I01
sg95
S'bb430b638bf3a4d970627021b0da63ae'
p2224
sg15
I00
sbsg608
g0
(g242
g2
Ntp2225
Rp2226
(dp2227
g14
I00
sg32
I00
sg95
I01
sg15
I00
sbsg11
(lp2228
g222
ag603
ag608
asbatp2229
Rp2230
(dp2231
g14
I00
sg32
I01
sg15
I00
sg33
I1
sbsg34
S'egmGsfElectronIDs'
p2232
sg35
S'VersionedGsfElectronIdProducer'
p2233
sbag0
(g50
g2
Ntp2234
Rp2235
(dp2236
g11
(lp2237
g55
ag56
aS'esReducedRecHitCollectionMiniAOD'
p2238
aS'eeReducedRecHitCollection'
p2239
aS'ebReducedRecHitCollectionMiniAOD'
p2240
aS'eeReducedRecHitCollectionMiniAOD'
p2241
aS'useFull5x5'
p2242
aS'esReducedRecHitCollection'
p2243
aS'ebReducedRecHitCollection'
p2244
asg14
I00
sg56
g0
(g58
g2
Ntp2245
Rp2246
(dp2247
g14
I00
sg32
I01
sg15
I00
sg62
g63
sg64
g65
sg66
g67
sbsg15
I00
sg55
g0
(g58
g2
Ntp2248
Rp2249
(dp2250
g14
I00
sg32
I01
sg15
I00
sg62
g71
sg64
g67
sg66
g67
sbsg17
S'/cvmfs/cms.cern.ch/slc6_amd64_gcc530/cms/cmssw/CMSSW_8_0_12/python/RecoEgamma/ElectronIdentification/ElectronRegressionValueMapProducer_cfi.py'
p2251
sg2239
g0
(g58
g2
Ntp2252
Rp2253
(dp2254
g14
I00
sg32
I01
sg15
I00
sg62
S'reducedEcalRecHitsEE'
p2255
sg64
g67
sg66
g67
sbsg2243
g0
(g58
g2
Ntp2256
Rp2257
(dp2258
g14
I00
sg32
I01
sg15
I00
sg62
S'reducedEcalRecHitsES'
p2259
sg64
g67
sg66
g67
sbsg2240
g0
(g58
g2
Ntp2260
Rp2261
(dp2262
g14
I00
sg32
I01
sg15
I00
sg62
S'reducedEgamma'
p2263
sg64
g67
sg66
S'reducedEBRecHits'
p2264
sbsg2241
g0
(g58
g2
Ntp2265
Rp2266
(dp2267
g14
I00
sg32
I01
sg15
I00
sg62
S'reducedEgamma'
p2268
sg64
g67
sg66
S'reducedEERecHits'
p2269
sbsg16
I20
sg2242
g0
(g242
g2
Ntp2270
Rp2271
(dp2272
g14
I00
sg32
I01
sg95
I00
sg15
I00
sbsg2238
g0
(g58
g2
Ntp2273
Rp2274
(dp2275
g14
I00
sg32
I01
sg15
I00
sg62
S'reducedEgamma'
p2276
sg64
g67
sg66
S'reducedESRecHits'
p2277
sbsg34
S'electronRegressionValueMapProducer'
p2278
sg35
S'ElectronRegressionValueMapProducer'
p2279
sg2244
g0
(g58
g2
Ntp2280
Rp2281
(dp2282
g14
I00
sg32
I01
sg15
I00
sg62
S'reducedEcalRecHitsEB'
p2283
sg64
g67
sg66
g67
sbsbasbsg15
I00
sg34
g38
sbssS'_Process__source'
p2284
g0
(cFWCore.ParameterSet.Modules
Source
p2285
g2
Ntp2286
Rp2287
(dp2288
g11
(lp2289
S'skipEvents'
p2290
aS'fileNames'
p2291
asg14
I00
sg15
I00
sg16
I175
sg17
g18
sg2290
g0
(g589
g2
Ntp2292
Rp2293
(dp2294
g14
I00
sg32
I00
sg95
I0
sg15
I00
sbsg2291
g0
(g19
g20
(lp2295
S'file:/afs/cern.ch/work/a/aspiezia/public/4FrancescoR/pickevents_1354521796.root'
p2296
atp2297
Rp2298
(dp2299
g14
I00
sg32
I00
sg15
I00
sg33
I1
sbsg35
S'PoolSource'
p2300
sbsg206
g52
sS'TFileService'
p2301
g0
(cFWCore.ParameterSet.Modules
Service
p2302
g2
Ntp2303
Rp2304
(dp2305
g11
(lp2306
S'fileName'
p2307
asg14
I00
sg15
I00
sg16
I10
sg17
g18
sg2307
g0
(g91
g2
Ntp2308
Rp2309
(dp2310
g14
I00
sg32
I01
sg95
S'OutTree.root'
p2311
sg15
I00
sbsg35
g2301
sbsS'hcalDDDSimConstants'
p2312
g0
(g7
g2
Ntp2313
Rp2314
(dp2315
g11
(lp2316
S'appendToDataLabel'
p2317
asg14
I00
sg2317
g0
(g91
g2
Ntp2318
Rp2319
(dp2320
g14
I00
sg32
I01
sg95
g67
sg15
I00
sbsg15
I00
sg16
I40
sg17
g18
sg34
g2312
sg35
S'HcalDDDSimConstantsESModule'
p2321
sbsS'source'
p2322
g2287
sS'RandomNumberGeneratorService'
p2323
g0
(g2302
g2
Ntp2324
Rp2325
(dp2326
g14
I00
sS'horeco'
p2327
g0
(g75
g2
Ntp2328
Rp2329
(dp2330
g14
I00
sg32
I01
sg15
I00
sS'initialSeed'
p2331
g0
(g589
g2
Ntp2332
Rp2333
(dp2334
g14
I00
sg32
I00
sg95
I541321
sg15
I00
sbsg11
(lp2335
g2331
aS'engineName'
p2336
asg2336
g0
(g91
g2
Ntp2337
Rp2338
(dp2339
g14
I00
sg32
I00
sg95
S'TRandom3'
p2340
sg15
I00
sbsbsg16
I10
sS'paramMuons'
p2341
g0
(g75
g2
Ntp2342
Rp2343
(dp2344
g14
I00
sg32
I01
sg15
I00
sg2331
g0
(g589
g2
Ntp2345
Rp2346
(dp2347
g14
I00
sg32
I00
sg95
I54525
sg15
I00
sbsg11
(lp2348
g2331
ag2336
asg2336
g0
(g91
g2
Ntp2349
Rp2350
(dp2351
g14
I00
sg32
I00
sg95
g2340
sg15
I00
sbsbsS'saveFileName'
p2352
g0
(g91
g2
Ntp2353
Rp2354
(dp2355
g14
I00
sg32
I00
sg95
g67
sg15
I00
sbsS'hbhereco'
p2356
g0
(g75
g2
Ntp2357
Rp2358
(dp2359
g14
I00
sg32
I01
sg15
I00
sg2331
g0
(g589
g2
Ntp2360
Rp2361
(dp2362
g14
I00
sg32
I00
sg95
I541321
sg15
I00
sbsg11
(lp2363
g2331
ag2336
asg2336
g0
(g91
g2
Ntp2364
Rp2365
(dp2366
g14
I00
sg32
I00
sg95
g2340
sg15
I00
sbsbsS'simSiStripDigiSimLink'
p2367
g0
(g75
g2
Ntp2368
Rp2369
(dp2370
g14
I00
sg32
I01
sg15
I00
sg2331
g0
(g589
g2
Ntp2371
Rp2372
(dp2373
g14
I00
sg32
I00
sg95
I1234567
sg15
I00
sbsg11
(lp2374
g2331
ag2336
asg2336
g0
(g91
g2
Ntp2375
Rp2376
(dp2377
g14
I00
sg32
I00
sg95
S'HepJamesRandom'
p2378
sg15
I00
sbsbsS'externalLHEProducer'
p2379
g0
(g75
g2
Ntp2380
Rp2381
(dp2382
g14
I00
sg32
I01
sg15
I00
sg2331
g0
(g589
g2
Ntp2383
Rp2384
(dp2385
g14
I00
sg32
I00
sg95
I234567
sg15
I00
sbsg11
(lp2386
g2331
ag2336
asg2336
g0
(g91
g2
Ntp2387
Rp2388
(dp2389
g14
I00
sg32
I00
sg95
g2378
sg15
I00
sbsbsS'famosPileUp'
p2390
g0
(g75
g2
Ntp2391
Rp2392
(dp2393
g14
I00
sg32
I01
sg15
I00
sg2331
g0
(g589
g2
Ntp2394
Rp2395
(dp2396
g14
I00
sg32
I00
sg95
I918273
sg15
I00
sbsg11
(lp2397
g2331
ag2336
asg2336
g0
(g91
g2
Ntp2398
Rp2399
(dp2400
g14
I00
sg32
I00
sg95
g2340
sg15
I00
sbsbsS'simMuonDTDigis'
p2401
g0
(g75
g2
Ntp2402
Rp2403
(dp2404
g14
I00
sg32
I01
sg15
I00
sg2331
g0
(g589
g2
Ntp2405
Rp2406
(dp2407
g14
I00
sg32
I00
sg95
I1234567
sg15
I00
sbsg11
(lp2408
g2331
ag2336
asg2336
g0
(g91
g2
Ntp2409
Rp2410
(dp2411
g14
I00
sg32
I00
sg95
g2378
sg15
I00
sbsbsg35
g2323
sS'siTrackerGaussianSmearingRecHits'
p2412
g0
(g75
g2
Ntp2413
Rp2414
(dp2415
g14
I00
sg32
I01
sg15
I00
sg2331
g0
(g589
g2
Ntp2416
Rp2417
(dp2418
g14
I00
sg32
I00
sg95
I24680
sg15
I00
sbsg11
(lp2419
g2331
ag2336
asg2336
g0
(g91
g2
Ntp2420
Rp2421
(dp2422
g14
I00
sg32
I00
sg95
g2340
sg15
I00
sbsbsg11
(lp2423
g2327
ag2341
ag2352
ag2356
ag2367
ag2379
ag2390
ag2401
ag2412
aS'ecalPreshowerRecHit'
p2424
aS'generator'
p2425
aS'simMuonRPCDigis'
p2426
aS'hiSignal'
p2427
aS'mixSimCaloHits'
p2428
aS'mix'
p2429
aS'VtxSmeared'
p2430
aS'LHCTransport'
p2431
aS'ecalRecHit'
p2432
aS'hfreco'
p2433
aS'mixRecoTracks'
p2434
aS'hiSignalG4SimHits'
p2435
aS'famosSimHits'
p2436
aS'MuonSimHits'
p2437
aS'g4SimHits'
p2438
aS'hiSignalLHCTransport'
p2439
aS'mixGenPU'
p2440
aS'l1ParamMuons'
p2441
aS'simBeamSpotFilter'
p2442
aS'simMuonCSCDigis'
p2443
aS'mixData'
p2444
asg2424
g0
(g75
g2
Ntp2445
Rp2446
(dp2447
g14
I00
sg32
I01
sg15
I00
sg2331
g0
(g589
g2
Ntp2448
Rp2449
(dp2450
g14
I00
sg32
I00
sg95
I6541321
sg15
I00
sbsg11
(lp2451
g2331
ag2336
asg2336
g0
(g91
g2
Ntp2452
Rp2453
(dp2454
g14
I00
sg32
I00
sg95
g2340
sg15
I00
sbsbsg2425
g0
(g75
g2
Ntp2455
Rp2456
(dp2457
g14
I00
sg32
I01
sg15
I00
sg2331
g0
(g589
g2
Ntp2458
Rp2459
(dp2460
g14
I00
sg32
I00
sg95
I123456789
sg15
I00
sbsg11
(lp2461
g2331
ag2336
asg2336
g0
(g91
g2
Ntp2462
Rp2463
(dp2464
g14
I00
sg32
I00
sg95
g2378
sg15
I00
sbsbsg2426
g0
(g75
g2
Ntp2465
Rp2466
(dp2467
g14
I00
sg32
I01
sg15
I00
sg2331
g0
(g589
g2
Ntp2468
Rp2469
(dp2470
g14
I00
sg32
I00
sg95
I1234567
sg15
I00
sbsg11
(lp2471
g2331
ag2336
asg2336
g0
(g91
g2
Ntp2472
Rp2473
(dp2474
g14
I00
sg32
I00
sg95
g2378
sg15
I00
sbsbsg2427
g0
(g75
g2
Ntp2475
Rp2476
(dp2477
g14
I00
sg32
I01
sg15
I00
sg2331
g0
(g589
g2
Ntp2478
Rp2479
(dp2480
g14
I00
sg32
I00
sg95
I123456789
sg15
I00
sbsg11
(lp2481
g2331
ag2336
asg2336
g0
(g91
g2
Ntp2482
Rp2483
(dp2484
g14
I00
sg32
I00
sg95
g2378
sg15
I00
sbsbsg2428
g0
(g75
g2
Ntp2485
Rp2486
(dp2487
g14
I00
sg32
I01
sg15
I00
sg2331
g0
(g589
g2
Ntp2488
Rp2489
(dp2490
g14
I00
sg32
I00
sg95
I918273
sg15
I00
sbsg11
(lp2491
g2331
ag2336
asg2336
g0
(g91
g2
Ntp2492
Rp2493
(dp2494
g14
I00
sg32
I00
sg95
g2340
sg15
I00
sbsbsg2429
g0
(g75
g2
Ntp2495
Rp2496
(dp2497
g14
I00
sg32
I01
sg15
I00
sg2331
g0
(g589
g2
Ntp2498
Rp2499
(dp2500
g14
I00
sg32
I00
sg95
I12345
sg15
I00
sbsg11
(lp2501
g2331
ag2336
asg2336
g0
(g91
g2
Ntp2502
Rp2503
(dp2504
g14
I00
sg32
I00
sg95
g2378
sg15
I00
sbsbsg2430
g0
(g75
g2
Ntp2505
Rp2506
(dp2507
g14
I00
sg32
I01
sg15
I00
sg2331
g0
(g589
g2
Ntp2508
Rp2509
(dp2510
g14
I00
sg32
I00
sg95
I98765432
sg15
I00
sbsg11
(lp2511
g2331
ag2336
asg2336
g0
(g91
g2
Ntp2512
Rp2513
(dp2514
g14
I00
sg32
I00
sg95
g2378
sg15
I00
sbsbsg2431
g0
(g75
g2
Ntp2515
Rp2516
(dp2517
g14
I00
sg32
I01
sg15
I00
sg2331
g0
(g589
g2
Ntp2518
Rp2519
(dp2520
g14
I00
sg32
I00
sg95
I87654321
sg15
I00
sbsg11
(lp2521
g2331
ag2336
asg2336
g0
(g91
g2
Ntp2522
Rp2523
(dp2524
g14
I00
sg32
I00
sg95
g2340
sg15
I00
sbsbsg2432
g0
(g75
g2
Ntp2525
Rp2526
(dp2527
g14
I00
sg32
I01
sg15
I00
sg2331
g0
(g589
g2
Ntp2528
Rp2529
(dp2530
g14
I00
sg32
I00
sg95
I654321
sg15
I00
sbsg11
(lp2531
g2331
ag2336
asg2336
g0
(g91
g2
Ntp2532
Rp2533
(dp2534
g14
I00
sg32
I00
sg95
g2340
sg15
I00
sbsbsg2444
g0
(g75
g2
Ntp2535
Rp2536
(dp2537
g14
I00
sg32
I01
sg15
I00
sg2331
g0
(g589
g2
Ntp2538
Rp2539
(dp2540
g14
I00
sg32
I00
sg95
I12345
sg15
I00
sbsg11
(lp2541
g2331
ag2336
asg2336
g0
(g91
g2
Ntp2542
Rp2543
(dp2544
g14
I00
sg32
I00
sg95
g2378
sg15
I00
sbsbsg2434
g0
(g75
g2
Ntp2545
Rp2546
(dp2547
g14
I00
sg32
I01
sg15
I00
sg2331
g0
(g589
g2
Ntp2548
Rp2549
(dp2550
g14
I00
sg32
I00
sg95
I918273
sg15
I00
sbsg11
(lp2551
g2331
ag2336
asg2336
g0
(g91
g2
Ntp2552
Rp2553
(dp2554
g14
I00
sg32
I00
sg95
g2340
sg15
I00
sbsbsg2435
g0
(g75
g2
Ntp2555
Rp2556
(dp2557
g14
I00
sg32
I01
sg15
I00
sg2331
g0
(g589
g2
Ntp2558
Rp2559
(dp2560
g14
I00
sg32
I00
sg95
I11
sg15
I00
sbsg11
(lp2561
g2331
ag2336
asg2336
g0
(g91
g2
Ntp2562
Rp2563
(dp2564
g14
I00
sg32
I00
sg95
g2378
sg15
I00
sbsbsg2436
g0
(g75
g2
Ntp2565
Rp2566
(dp2567
g14
I00
sg32
I01
sg15
I00
sg2331
g0
(g589
g2
Ntp2568
Rp2569
(dp2570
g14
I00
sg32
I00
sg95
I13579
sg15
I00
sbsg11
(lp2571
g2331
ag2336
asg2336
g0
(g91
g2
Ntp2572
Rp2573
(dp2574
g14
I00
sg32
I00
sg95
g2340
sg15
I00
sbsbsg2437
g0
(g75
g2
Ntp2575
Rp2576
(dp2577
g14
I00
sg32
I01
sg15
I00
sg2331
g0
(g589
g2
Ntp2578
Rp2579
(dp2580
g14
I00
sg32
I00
sg95
I987346
sg15
I00
sbsg11
(lp2581
g2331
ag2336
asg2336
g0
(g91
g2
Ntp2582
Rp2583
(dp2584
g14
I00
sg32
I00
sg95
g2340
sg15
I00
sbsbsg2438
g0
(g75
g2
Ntp2585
Rp2586
(dp2587
g14
I00
sg32
I01
sg15
I00
sg2331
g0
(g589
g2
Ntp2588
Rp2589
(dp2590
g14
I00
sg32
I00
sg95
I11
sg15
I00
sbsg11
(lp2591
g2331
ag2336
asg2336
g0
(g91
g2
Ntp2592
Rp2593
(dp2594
g14
I00
sg32
I00
sg95
g2378
sg15
I00
sbsbsg2439
g0
(g75
g2
Ntp2595
Rp2596
(dp2597
g14
I00
sg32
I01
sg15
I00
sg2331
g0
(g589
g2
Ntp2598
Rp2599
(dp2600
g14
I00
sg32
I00
sg95
I88776655
sg15
I00
sbsg11
(lp2601
g2331
ag2336
asg2336
g0
(g91
g2
Ntp2602
Rp2603
(dp2604
g14
I00
sg32
I00
sg95
g2340
sg15
I00
sbsbsg2440
g0
(g75
g2
Ntp2605
Rp2606
(dp2607
g14
I00
sg32
I01
sg15
I00
sg2331
g0
(g589
g2
Ntp2608
Rp2609
(dp2610
g14
I00
sg32
I00
sg95
I918273
sg15
I00
sbsg11
(lp2611
g2331
ag2336
asg2336
g0
(g91
g2
Ntp2612
Rp2613
(dp2614
g14
I00
sg32
I00
sg95
g2340
sg15
I00
sbsbsg2441
g0
(g75
g2
Ntp2615
Rp2616
(dp2617
g14
I00
sg32
I01
sg15
I00
sg2331
g0
(g589
g2
Ntp2618
Rp2619
(dp2620
g14
I00
sg32
I00
sg95
I6453209
sg15
I00
sbsg11
(lp2621
g2331
ag2336
asg2336
g0
(g91
g2
Ntp2622
Rp2623
(dp2624
g14
I00
sg32
I00
sg95
g2340
sg15
I00
sbsbsg15
I00
sg2442
g0
(g75
g2
Ntp2625
Rp2626
(dp2627
g14
I00
sg32
I01
sg15
I00
sg2331
g0
(g589
g2
Ntp2628
Rp2629
(dp2630
g14
I00
sg32
I00
sg95
I87654321
sg15
I00
sbsg11
(lp2631
g2331
ag2336
asg2336
g0
(g91
g2
Ntp2632
Rp2633
(dp2634
g14
I00
sg32
I00
sg95
g2378
sg15
I00
sbsbsg2443
g0
(g75
g2
Ntp2635
Rp2636
(dp2637
g14
I00
sg32
I01
sg15
I00
sg2331
g0
(g589
g2
Ntp2638
Rp2639
(dp2640
g14
I00
sg32
I00
sg95
I11223344
sg15
I00
sbsg11
(lp2641
g2331
ag2336
asg2336
g0
(g91
g2
Ntp2642
Rp2643
(dp2644
g14
I00
sg32
I00
sg95
g2378
sg15
I00
sbsbsg2433
g0
(g75
g2
Ntp2645
Rp2646
(dp2647
g14
I00
sg32
I01
sg15
I00
sg2331
g0
(g589
g2
Ntp2648
Rp2649
(dp2650
g14
I00
sg32
I00
sg95
I541321
sg15
I00
sbsg11
(lp2651
g2331
ag2336
asg2336
g0
(g91
g2
Ntp2652
Rp2653
(dp2654
g14
I00
sg32
I00
sg95
g2340
sg15
I00
sbsbsg17
g18
sbsg2067
g2029
sS'CaloTowerGeometryFromDBEP'
p2655
g0
(g7
g2
Ntp2656
Rp2657
(dp2658
g11
(lp2659
S'applyAlignment'
p2660
aS'hcalTopologyConstants'
p2661
asg14
I00
sg15
I01
sg16
I40
sg17
g18
sg2661
g0
(g75
g2
Ntp2662
Rp2663
(dp2664
g14
I00
sg32
I01
sg15
I00
sS'maxDepthHE'
p2665
g0
(g1945
g2
Ntp2666
Rp2667
(dp2668
g14
I00
sg32
I01
sg95
I3
sg15
I00
sbsS'maxDepthHB'
p2669
g0
(g1945
g2
Ntp2670
Rp2671
(dp2672
g14
I00
sg32
I01
sg95
I2
sg15
I00
sbsg11
(lp2673
g2665
ag2669
aS'mode'
p2674
asg2674
g0
(g91
g2
Ntp2675
Rp2676
(dp2677
g14
I00
sg32
I01
sg95
S'HcalTopologyMode::LHC'
p2678
sg15
I00
sbsbsg34
g2655
sg2660
g0
(g242
g2
Ntp2679
Rp2680
(dp2681
g14
I00
sg32
I01
sg95
I00
sg15
I00
sbsg35
g2655
sbsS'matchGenCHadron'
p2682
g0
(g50
g2
Ntp2683
Rp2684
(dp2685
g11
(lp2686
S'jetFlavourInfos'
p2687
aS'flavour'
p2688
aS'noBBbarResonances'
p2689
aS'genParticles'
p2690
aS'onlyJetClusteredHadrons'
p2691
asg14
I00
sg2690
g0
(g58
g2
Ntp2692
Rp2693
(dp2694
g14
I00
sg32
I01
sg15
I01
sg62
S'prunedGenParticles'
p2695
sg66
g67
sg64
g67
sbsg2688
g0
(g1945
g2
Ntp2696
Rp2697
(dp2698
g14
I00
sg32
I01
sg95
I4
sg15
I01
sbsg15
I00
sg16
I199
sg17
S'/afs/cern.ch/work/f/fromeo/CMSSW_8_0_12_FW/src/BSMFramework/BSM3G_TNT_Maker/python/miniAOD_RD.py'
p2699
sg2689
g0
(g242
g2
Ntp2700
Rp2701
(dp2702
g14
I00
sg32
I01
sg95
I00
sg15
I00
sbsg34
g2682
sg2687
g0
(g58
g2
Ntp2703
Rp2704
(dp2705
g14
I00
sg32
I01
sg15
I01
sg62
S'genJetFlavourInfos'
p2706
sg66
g67
sg64
g67
sbsg2691
g0
(g242
g2
Ntp2707
Rp2708
(dp2709
g14
I00
sg32
I01
sg95
I01
sg15
I00
sbsg35
S'GenHFHadronMatcher'
p2710
sbsS'_Process__InExtendCall'
p2711
I00
sS'_Process__producers'
p2712
(dp2713
g2706
g0
(g50
g2
Ntp2714
Rp2715
(dp2716
g11
(lp2717
S'ghostRescaling'
p2718
aS'partons'
p2719
aS'jetAlgorithm'
p2720
aS'bHadrons'
p2721
aS'rParam'
p2722
aS'leptons'
p2723
aS'jets'
p2724
aS'hadronFlavourHasPriority'
p2725
aS'cHadrons'
p2726
asg14
I00
sg2718
g0
(g252
g2
Ntp2727
Rp2728
(dp2729
g14
I00
sg32
I01
sg95
F1e-18
sg15
I00
sbsg2719
g0
(g58
g2
Ntp2730
Rp2731
(dp2732
g14
I00
sg32
I01
sg15
I00
sg62
S'selectedHadronsAndPartons'
p2733
sg66
S'algorithmicPartons'
p2734
sg64
g67
sbsg15
I00
sg16
I189
sg2720
g0
(g91
g2
Ntp2735
Rp2736
(dp2737
g14
I00
sg32
I01
sg95
S'AntiKt'
p2738
sg15
I00
sbsg2721
g0
(g58
g2
Ntp2739
Rp2740
(dp2741
g14
I00
sg32
I01
sg15
I00
sg62
g2733
sg66
g2721
sg64
g67
sbsg2722
g0
(g252
g2
Ntp2742
Rp2743
(dp2744
g14
I00
sg32
I01
sg95
F0.4
sg15
I00
sbsg34
g2706
sg2726
g0
(g58
g2
Ntp2745
Rp2746
(dp2747
g14
I00
sg32
I01
sg15
I00
sg62
g2733
sg66
g2726
sg64
g67
sbsg2723
g0
(g58
g2
Ntp2748
Rp2749
(dp2750
g14
I00
sg32
I01
sg15
I00
sg62
g2733
sg66
g2723
sg64
g67
sbsg17
g2699
sg2724
g0
(g58
g2
Ntp2751
Rp2752
(dp2753
g14
I00
sg32
I01
sg15
I01
sg62
S'slimmedGenJets'
p2754
sg66
g67
sg64
g67
sbsg2725
g0
(g242
g2
Ntp2755
Rp2756
(dp2757
g14
I00
sg32
I01
sg95
I00
sg15
I00
sbsg35
S'JetFlavourClustering'
p2758
sbsS'matchGenBHadron'
p2759
g0
(g50
g2
Ntp2760
Rp2761
(dp2762
g11
(lp2763
g2687
ag2688
ag2689
ag2690
ag2691
asg14
I00
sg2690
g0
(g58
g2
Ntp2764
Rp2765
(dp2766
g14
I00
sg32
I01
sg15
I01
sg62
g2695
sg66
g67
sg64
g67
sbsg2688
g0
(g1945
g2
Ntp2767
Rp2768
(dp2769
g14
I00
sg32
I01
sg95
I5
sg15
I00
sbsg15
I00
sg16
I194
sg17
g2699
sg2689
g0
(g242
g2
Ntp2770
Rp2771
(dp2772
g14
I00
sg32
I01
sg95
I00
sg15
I00
sbsg34
g2759
sg2687
g0
(g58
g2
Ntp2773
Rp2774
(dp2775
g14
I00
sg32
I01
sg15
I01
sg62
g2706
sg66
g67
sg64
g67
sbsg2691
g0
(g242
g2
Ntp2776
Rp2777
(dp2778
g14
I00
sg32
I01
sg95
I01
sg15
I00
sbsg35
g2710
sbsg2232
g209
sS'randomEngineStateProducer'
p2779
g0
(g50
g2
Ntp2780
Rp2781
(dp2782
g11
(lp2783
sg14
I00
sg15
I00
sg16
I170
sg17
S'/cvmfs/cms.cern.ch/slc6_amd64_gcc530/cms/cmssw/CMSSW_8_0_12/python/IOMC/RandomEngine/IOMC_cff.py'
p2784
sg34
g2779
sg35
S'RandomEngineStateProducer'
p2785
sbsg206
g52
sg2278
g2235
sg2682
g2684
sg2733
g0
(g50
g2
Ntp2786
Rp2787
(dp2788
g11
(lp2789
S'particles'
p2790
ag55
aS'partonMode'
p2791
asg14
I00
sg15
I00
sg55
g0
(g58
g2
Ntp2792
Rp2793
(dp2794
g14
I00
sg32
I01
sg15
I00
sg62
g2425
sg66
g67
sg64
g67
sbsg17
g2699
sg2791
g0
(g91
g2
Ntp2795
Rp2796
(dp2797
g14
I00
sg32
I01
sg95
S'Auto'
p2798
sg15
I00
sbsg2790
g0
(g58
g2
Ntp2799
Rp2800
(dp2801
g14
I00
sg32
I01
sg15
I01
sg62
g2695
sg66
g67
sg64
g67
sbsg16
I183
sg34
g2733
sg35
S'HadronAndPartonSelector'
p2802
sbssS'siPixelQualityESProducer'
p2803
g0
(g7
g2
Ntp2804
Rp2805
(dp2806
g11
(lp2807
S'ListOfRecordToMerge'
p2808
asg14
I00
sg15
I01
sg16
I40
sg17
g18
sg2808
g0
(g73
g20
(lp2809
g0
(g75
g2
Ntp2810
Rp2811
(dp2812
g14
I00
sg32
I01
sg15
I00
sS'record'
p2813
g0
(g91
g2
Ntp2814
Rp2815
(dp2816
g14
I00
sg32
I01
sg95
S'SiPixelQualityFromDbRcd'
p2817
sg15
I00
sbsS'tag'
p2818
g0
(g91
g2
Ntp2819
Rp2820
(dp2821
g14
I00
sg32
I01
sg95
g67
sg15
I00
sbsg11
(lp2822
g2813
ag2818
asbag0
(g75
g2
Ntp2823
Rp2824
(dp2825
g14
I00
sg32
I01
sg15
I00
sg2813
g0
(g91
g2
Ntp2826
Rp2827
(dp2828
g14
I00
sg32
I01
sg95
S'SiPixelDetVOffRcd'
p2829
sg15
I00
sbsg2818
g0
(g91
g2
Ntp2830
Rp2831
(dp2832
g14
I00
sg32
I01
sg95
g67
sg15
I00
sbsg11
(lp2833
g2813
ag2818
asbatp2834
Rp2835
(dp2836
g14
I00
sg32
I01
sg15
I00
sg33
I1
sbsg34
g2803
sg35
S'SiPixelQualityESProducer'
p2837
sbsS'GlobalTag'
p2838
g0
(cFWCore.ParameterSet.Modules
ESSource
p2839
g2
Ntp2840
Rp2841
(dp2842
g11
(lp2843
S'DBParameters'
p2844
aS'connect'
p2845
aS'globaltag'
p2846
aS'RefreshEachRun'
p2847
aS'pfnPrefix'
p2848
aS'snapshotTime'
p2849
aS'toGet'
p2850
aS'pfnPostfix'
p2851
aS'RefreshAlways'
p2852
aS'ReconnectEachRun'
p2853
aS'RefreshOpenIOVs'
p2854
aS'DumpStat'
p2855
asg14
I00
sg17
S'/cvmfs/cms.cern.ch/slc6_amd64_gcc530/cms/cmssw/CMSSW_8_0_12/python/CondCore/ESSources/CondDBESSource_cfi.py'
p2856
sg15
I01
sg2846
g0
(g91
g2
Ntp2857
Rp2858
(dp2859
g14
I00
sg32
I01
sg95
S'80X_dataRun2_Prompt_ICHEP16JEC_v0'
p2860
sg15
I01
sbsg2847
g0
(g242
g2
Ntp2861
Rp2862
(dp2863
g14
I00
sg32
I00
sg95
I00
sg15
I00
sbsg2848
g0
(g91
g2
Ntp2864
Rp2865
(dp2866
g14
I00
sg32
I00
sg95
g67
sg15
I00
sbsg2849
g0
(g91
g2
Ntp2867
Rp2868
(dp2869
g14
I00
sg32
I01
sg95
g67
sg15
I00
sbsg2850
g0
(g73
g20
(lp2870
tp2871
Rp2872
(dp2873
g14
I00
sg32
I01
sg15
I00
sg33
I1
sbsg2851
g0
(g91
g2
Ntp2874
Rp2875
(dp2876
g14
I00
sg32
I00
sg95
g67
sg15
I00
sbsg2844
g0
(g75
g2
Ntp2877
Rp2878
(dp2879
g14
I00
sg32
I01
sS'authenticationPath'
p2880
g0
(g91
g2
Ntp2881
Rp2882
(dp2883
g14
I00
sg32
I00
sg95
g67
sg15
I00
sbsg15
I00
sS'messageLevel'
p2884
g0
(g1945
g2
Ntp2885
Rp2886
(dp2887
g14
I00
sg32
I00
sg95
I0
sg15
I00
sbsg11
(lp2888
g2884
aS'security'
p2889
aS'authenticationSystem'
p2890
ag2880
asg2889
g0
(g91
g2
Ntp2891
Rp2892
(dp2893
g14
I00
sg32
I00
sg95
g67
sg15
I00
sbsg2890
g0
(g1945
g2
Ntp2894
Rp2895
(dp2896
g14
I00
sg32
I00
sg95
I0
sg15
I00
sbsbsg2852
g0
(g242
g2
Ntp2897
Rp2898
(dp2899
g14
I00
sg32
I00
sg95
I00
sg15
I00
sbsg16
I19
sg2845
g0
(g91
g2
Ntp2900
Rp2901
(dp2902
g14
I00
sg32
I01
sg95
S'frontier://FrontierProd/CMS_CONDITIONS'
p2903
sg15
I00
sbsg2853
g0
(g242
g2
Ntp2904
Rp2905
(dp2906
g14
I00
sg32
I00
sg95
I00
sg15
I00
sbsg34
g2838
sg2854
g0
(g242
g2
Ntp2907
Rp2908
(dp2909
g14
I00
sg32
I00
sg95
I00
sg15
I00
sbsg2855
g0
(g242
g2
Ntp2910
Rp2911
(dp2912
g14
I00
sg32
I00
sg95
I00
sg15
I00
sbsg35
S'PoolDBESSource'
p2913
sbsS'mvaEleID_Spring15_50ns_Trig_V1_wp90'
p2914
g0
(g75
g2
Ntp2915
Rp2916
(dp2917
g14
I00
sg32
I01
sg15
I01
sg226
g0
(g91
g2
Ntp2918
Rp2919
(dp2920
g14
I00
sg32
I01
sg95
S'mvaEleID-Spring15-50ns-Trig-V1-wp90'
p2921
sg15
I00
sbsg231
g0
(g73
g20
(lp2922
g0
(g75
g2
Ntp2923
Rp2924
(dp2925
g14
I00
sg32
I01
sg1983
g0
(g58
g2
Ntp2926
Rp2927
(dp2928
g14
I00
sg32
I01
sg15
I00
sg62
S'electronMVAValueMapProducer'
p2929
sg64
g67
sg66
S'ElectronMVAEstimatorRun2Spring15Trig50nsV1Values'
p2930
sbsg1989
g0
(g58
g2
Ntp2931
Rp2932
(dp2933
g14
I00
sg32
I01
sg15
I00
sg62
S'electronMVAValueMapProducer'
p2934
sg64
g67
sg66
S'ElectronMVAEstimatorRun2Spring15Trig50nsV1Categories'
p2935
sbsg236
g0
(g91
g2
Ntp2936
Rp2937
(dp2938
g14
I00
sg32
I01
sg95
g1998
sg15
I00
sbsg241
g0
(g242
g2
Ntp2939
Rp2940
(dp2941
g14
I00
sg32
I01
sg95
I01
sg15
I00
sbsg2002
g0
(g2003
g20
(lp2942
F0.953843
aF0.849994
aF0.514118
atp2943
Rp2944
(dp2945
g14
I00
sg32
I01
sg15
I00
sbsg246
g0
(g242
g2
Ntp2946
Rp2947
(dp2948
g14
I00
sg32
I01
sg95
I00
sg15
I00
sbsg11
(lp2949
g1983
ag1989
ag236
ag241
ag2002
ag246
asg15
I00
sbatp2950
Rp2951
(dp2952
g14
I00
sg32
I01
sg15
I00
sg33
I1
sbsg608
g0
(g242
g2
Ntp2953
Rp2954
(dp2955
g14
I00
sg32
I00
sg95
I01
sg15
I00
sbsg11
(lp2956
g226
ag231
ag608
asg34
g2914
sbsS'TransientTrackBuilderESProducer'
p2957
g0
(g7
g2
Ntp2958
Rp2959
(dp2960
g11
(lp2961
S'ComponentName'
p2962
asg14
I00
sg15
I00
sg16
I40
sg17
g18
sg2962
g0
(g91
g2
Ntp2963
Rp2964
(dp2965
g14
I00
sg32
I01
sg95
S'TransientTrackBuilder'
p2966
sg15
I00
sbsg34
g2957
sg35
g2957
sbsS'_Process__endpaths'
p2967
g0
(cFWCore.ParameterSet.DictTypes
SortedKeysDict
p2968
c__builtin__
dict
p2969
(dp2970
tp2971
Rp2972
(dp2973
S'list'
p2974
(lp2975
sbsS'p'
p2976
g0
(cFWCore.ParameterSet.SequenceTypes
Path
p2977
g2
Ntp2978
Rp2979
(dp2980
g14
I00
sg43
g0
(g44
g2
Ntp2981
Rp2982
(dp2983
g48
(lp2984
g41
ag0
(cFWCore.ParameterSet.Modules
EDAnalyzer
p2985
g2
Ntp2986
Rp2987
(dp2988
g16
I390
sS'Photon_eta_max'
p2989
g0
(g252
g2
Ntp2990
Rp2991
(dp2992
g14
I00
sg32
I01
sg95
F5.0
sg15
I00
sbsS'elemvaCategoriesMap_Trig'
p2993
g0
(g58
g2
Ntp2994
Rp2995
(dp2996
g14
I00
sg32
I01
sg15
I00
sg62
S'electronMVAValueMapProducer'
p2997
sg64
g67
sg66
S'ElectronMVAEstimatorRun2Spring15Trig25nsV1Categories'
p2998
sbsS'PUReweightfile'
p2999
g0
(g534
g2
Ntp3000
Rp3001
(dp3002
g14
I00
sg32
I01
sg95
S'BSMFramework/BSM3G_TNT_Maker/data/PUReweight/PileUpReweighting2016.root'
p3003
sg15
I00
sbsS'filleventinfo'
p3004
g0
(g242
g2
Ntp3005
Rp3006
(dp3007
g14
I00
sg32
I01
sg95
I00
sg15
I00
sbsS'jecPayloadNamesAK4PFPuppiMC1'
p3008
g0
(g534
g2
Ntp3009
Rp3010
(dp3011
g14
I00
sg32
I01
sg95
S'BSMFramework/BSM3G_TNT_Maker/data/JEC/MC/Spring16_25nsV6_MC_L1FastJet_AK4PFPuppi.txt'
p3012
sg15
I00
sbsS'jecPayloadNamesAK4PFPuppiMC2'
p3013
g0
(g534
g2
Ntp3014
Rp3015
(dp3016
g14
I00
sg32
I01
sg95
S'BSMFramework/BSM3G_TNT_Maker/data/JEC/MC/Spring16_25nsV6_MC_L2Relative_AK4PFPuppi.txt'
p3017
sg15
I00
sbsS'jecPayloadNamesAK4PFPuppiMC3'
p3018
g0
(g534
g2
Ntp3019
Rp3020
(dp3021
g14
I00
sg32
I01
sg95
S'BSMFramework/BSM3G_TNT_Maker/data/JEC/MC/Spring16_25nsV6_MC_L3Absolute_AK4PFPuppi.txt'
p3022
sg15
I00
sbsS'jerAK8PFPuppi'
p3023
g0
(g534
g2
Ntp3024
Rp3025
(dp3026
g14
I00
sg32
I01
sg95
S'BSMFramework/BSM3G_TNT_Maker/data/JER/Spring16_25nsV6_MC_PtResolution_AK8PFPuppi.txt'
p3027
sg15
I00
sbsg11
(lp3028
g2989
ag2993
ag2999
ag3004
ag3008
ag3013
ag3018
ag3023
aS'genJetPtMin'
p3029
aS'elemvaValuesMap_Trig'
p3030
aS'photons'
p3031
aS'jecPayloadNamesAK4PFchsDATA4'
p3032
aS'filltriggerinfo'
p3033
aS'super_TNT'
p3034
aS'pruned'
p3035
aS'jerAK4PFchsSF'
p3036
aS'electronLooseIdMap'
p3037
aS'Muon_pt_min'
p3038
aS'fillBoostedJetinfo'
p3039
aS'jecPayloadNamesAK4PFchsDATA2'
p3040
aS'jecPayloadNamesAK4PFchsDATA3'
p3041
aS'jecPayloadNamesAK4PFchsDATA1'
p3042
aS'jecPayloadNamesAK4PFchsMC1'
p3043
aS'jecPayloadNamesAK4PFchsMC2'
p3044
aS'jecPayloadNamesAK4PFchsMC3'
p3045
aS'genBHadFromTopWeakDecay'
p3046
aS'fatjets'
p3047
aS'fillMETinfo'
p3048
aS'Pvtx_ndof_min'
p3049
aS'jerAK4PFPuppi'
p3050
aS'jecPayloadNamesAK4PFPuppiDATA3'
p3051
aS'genBHadLeptonViaTau'
p3052
aS'genCHadBHadronId'
p3053
aS'is_data'
p3054
aS'mets'
p3055
aS'fillPVinfo'
p3056
aS'packedPFCandidates'
p3057
aS'vtx_position_z_max'
p3058
aS'fillBJetnessinfo'
p3059
aS'jecPayloadNamesAK8PFchsMC1'
p3060
aS'jecPayloadNamesAK8PFchsMC2'
p3061
aS'jecPayloadNamesAK8PFchsMC3'
p3062
aS'genCHadFromTopWeakDecay'
p3063
aS'topsubjets'
p3064
aS'maxtriggerversion'
p3065
aS'metFilterBits'
p3066
aS'filltauinfo'
p3067
aS'jecPayloadNamesAK4PFPuppiDATA4'
p3068
aS'jecPayloadNamesAK4PFPuppiDATA2'
p3069
aS'vtx_ndof_min'
p3070
aS'jecPayloadNamesAK4PFPuppiDATA1'
p3071
aS'objects'
p3072
ag2724
aS'genBHadPlusMothers'
p3073
aS'genBHadFlavour'
p3074
aS'jecPayloadNamesAK8PFchsDATA4'
p3075
aS'jecPayloadNamesAK8PFchsDATA2'
p3076
aS'jecPayloadNamesAK8PFchsDATA3'
p3077
aS'jecPayloadNamesAK8PFchsDATA1'
p3078
aS'fillBTagReweight'
p3079
aS'Jet_pt_min'
p3080
aS'debug_'
p3081
aS'jerAK8PFPuppiSF'
p3082
aS'BTAGReweightfile1'
p3083
aS'BTAGReweightfile2'
p3084
aS'fillBJetnessFVinfo'
p3085
aS'jetsPUPPI'
p3086
aS'PuppiVar'
p3087
aS'patElectrons'
p3088
aS'elemvaCategoriesMap_nonTrig'
p3089
aS'jerAK8PFchs'
p3090
aS'patElectron_eta_max'
p3091
aS'jerAK8PFchsSF'
p3092
aS'Pvtx_vtx_max'
p3093
aS'tthlepVar'
p3094
aS'genJetAbsEtaMax'
p3095
aS'muons'
p3096
aS'bits'
p3097
aS'Tau_pt_min'
p3098
aS'fillTauJetnessinfo'
p3099
aS'genBHadIndex'
p3100
aS'eleMVATrigwp90IdMap'
p3101
aS'jecPayloadNamesAK4PFPuppiMCUnc'
p3102
aS'Tau_eta_max'
p3103
aS'fillphotoninfo'
p3104
aS'filljetinfo'
p3105
aS'fillgeninfo'
p3106
aS'fillPileupReweight'
p3107
ag107
aS'fillmuoninfo'
p3108
aS'jecPayloadNamesAK8PFchsMCUnc'
p3109
aS'genBHadJetIndex'
p3110
aS'taus'
p3111
aS'electronVetoIdMap'
p3112
aS'eleHEEPIdMap'
p3113
aS'jerAK4PFchs'
p3114
aS'ifevtriggers'
p3115
aS'jecPayloadNamesAK8PFchsDATAUnc'
p3116
aS'Muon_eta_max'
p3117
aS'Pvtx_vtxdxy_max'
p3118
aS'Photon_pt_min'
p3119
aS'genJets'
p3120
aS'vtx_rho_max'
p3121
aS'fillelectronpatinfo'
p3122
aS'metsPUPPI'
p3123
aS'patElectron_pt_min'
p3124
aS'jecPayloadNamesAK4PFPuppiDATAUnc'
p3125
aS'electronMediumIdMap'
p3126
aS'AJVar'
p3127
aS'genBHadPlusMothersIndices'
p3128
aS'eleMVATrigIdMap'
p3129
aS'eleMVAnonTrigIdMap'
p3130
aS'qglVar'
p3131
aS'fillgenHFCategoryinfo'
p3132
aS'eleMVAnonTrigwp90IdMap'
p3133
aS'genBHadLeptonHadronIndex'
p3134
aS'elemvaValuesMap_nonTrig'
p3135
aS'filltthjetinfo'
p3136
aS'genCHadJetIndex'
p3137
aS'evtriggers'
p3138
aS'fillTopSubJetinfo'
p3139
aS'electronTightIdMap'
p3140
aS'jerAK4PFPuppiSF'
p3141
aS'jecPayloadNamesAK4PFchsDATAUnc'
p3142
aS'jecPayloadNamesAK4PFchsMCUnc'
p3143
aS'prescales'
p3144
aS'vertices'
p3145
aS'genCHadFlavour'
p3146
aS'MiniAODv2'
p3147
asg3029
g0
(g252
g2
Ntp3148
Rp3149
(dp3150
g14
I00
sg32
I01
sg95
F20.0
sg15
I00
sbsg3030
g0
(g58
g2
Ntp3151
Rp3152
(dp3153
g14
I00
sg32
I01
sg15
I00
sg62
S'electronMVAValueMapProducer'
p3154
sg64
g67
sg66
S'ElectronMVAEstimatorRun2Spring15Trig25nsV1Values'
p3155
sbsg17
g2699
sg3031
g0
(g58
g2
Ntp3156
Rp3157
(dp3158
g14
I00
sg32
I01
sg15
I00
sg62
S'slimmedPhotons'
p3159
sg64
g67
sg66
g67
sbsg3032
g0
(g534
g2
Ntp3160
Rp3161
(dp3162
g14
I00
sg32
I01
sg95
S'BSMFramework/BSM3G_TNT_Maker/data/JEC/DATA/Spring16_25nsV6_DATA_L2L3Residual_AK4PFchs.txt'
p3163
sg15
I00
sbsg3033
g0
(g242
g2
Ntp3164
Rp3165
(dp3166
g14
I00
sg32
I01
sg95
I01
sg15
I00
sbsg3034
g0
(g242
g2
Ntp3167
Rp3168
(dp3169
g14
I00
sg32
I01
sg95
I00
sg15
I00
sbsg3035
g0
(g58
g2
Ntp3170
Rp3171
(dp3172
g14
I00
sg32
I01
sg15
I00
sg62
g2695
sg64
g67
sg66
g67
sbsg3036
g0
(g534
g2
Ntp3173
Rp3174
(dp3175
g14
I00
sg32
I01
sg95
S'BSMFramework/BSM3G_TNT_Maker/data/JER/Spring16_25nsV6_MC_SF_AK4PFchs.txt'
p3176
sg15
I00
sbsg3037
g0
(g58
g2
Ntp3177
Rp3178
(dp3179
g14
I00
sg32
I01
sg15
I00
sg62
S'egmGsfElectronIDs'
p3180
sg64
g67
sg66
S'cutBasedElectronID-Spring15-25ns-V1-standalone-loose'
p3181
sbsg3038
g0
(g252
g2
Ntp3182
Rp3183
(dp3184
g14
I00
sg32
I01
sg95
F5.0
sg15
I00
sbsg3039
g0
(g242
g2
Ntp3185
Rp3186
(dp3187
g14
I00
sg32
I01
sg95
I00
sg15
I00
sbsg3040
g0
(g534
g2
Ntp3188
Rp3189
(dp3190
g14
I00
sg32
I01
sg95
S'BSMFramework/BSM3G_TNT_Maker/data/JEC/DATA/Spring16_25nsV6_DATA_L2Relative_AK4PFchs.txt'
p3191
sg15
I00
sbsg3041
g0
(g534
g2
Ntp3192
Rp3193
(dp3194
g14
I00
sg32
I01
sg95
S'BSMFramework/BSM3G_TNT_Maker/data/JEC/DATA/Spring16_25nsV6_DATA_L3Absolute_AK4PFchs.txt'
p3195
sg15
I00
sbsg3042
g0
(g534
g2
Ntp3196
Rp3197
(dp3198
g14
I00
sg32
I01
sg95
S'BSMFramework/BSM3G_TNT_Maker/data/JEC/DATA/Spring16_25nsV6_DATA_L1FastJet_AK4PFchs.txt'
p3199
sg15
I00
sbsg3043
g0
(g534
g2
Ntp3200
Rp3201
(dp3202
g14
I00
sg32
I01
sg95
S'BSMFramework/BSM3G_TNT_Maker/data/JEC/MC/Spring16_25nsV6_MC_L1FastJet_AK4PFchs.txt'
p3203
sg15
I00
sbsg3044
g0
(g534
g2
Ntp3204
Rp3205
(dp3206
g14
I00
sg32
I01
sg95
S'BSMFramework/BSM3G_TNT_Maker/data/JEC/MC/Spring16_25nsV6_MC_L2Relative_AK4PFchs.txt'
p3207
sg15
I00
sbsg3045
g0
(g534
g2
Ntp3208
Rp3209
(dp3210
g14
I00
sg32
I01
sg95
S'BSMFramework/BSM3G_TNT_Maker/data/JEC/MC/Spring16_25nsV6_MC_L3Absolute_AK4PFchs.txt'
p3211
sg15
I00
sbsg3046
g0
(g58
g2
Ntp3212
Rp3213
(dp3214
g14
I00
sg32
I01
sg15
I00
sg62
g2759
sg64
g67
sg66
g3046
sbsg3047
g0
(g58
g2
Ntp3215
Rp3216
(dp3217
g14
I00
sg32
I01
sg15
I00
sg62
S'slimmedJetsAK8'
p3218
sg64
g67
sg66
g67
sbsg3069
g0
(g534
g2
Ntp3219
Rp3220
(dp3221
g14
I00
sg32
I01
sg95
S'BSMFramework/BSM3G_TNT_Maker/data/JEC/DATA/Spring16_25nsV6_DATA_L2Relative_AK4PFPuppi.txt'
p3222
sg15
I00
sbsg3049
g0
(g252
g2
Ntp3223
Rp3224
(dp3225
g14
I00
sg32
I01
sg95
F4.0
sg15
I00
sbsg3050
g0
(g534
g2
Ntp3226
Rp3227
(dp3228
g14
I00
sg32
I01
sg95
S'BSMFramework/BSM3G_TNT_Maker/data/JER/Spring16_25nsV6_MC_PtResolution_AK4PFPuppi.txt'
p3229
sg15
I00
sbsg3070
g0
(g1945
g2
Ntp3230
Rp3231
(dp3232
g14
I00
sg32
I01
sg95
I4
sg15
I00
sbsg3052
g0
(g58
g2
Ntp3233
Rp3234
(dp3235
g14
I00
sg32
I01
sg15
I00
sg62
g2759
sg64
g67
sg66
g3052
sbsg3053
g0
(g58
g2
Ntp3236
Rp3237
(dp3238
g14
I00
sg32
I01
sg15
I00
sg62
g2682
sg64
g67
sg66
g3053
sbsg3054
g0
(g242
g2
Ntp3239
Rp3240
(dp3241
g14
I00
sg32
I01
sg95
I01
sg15
I00
sbsg3055
g0
(g58
g2
Ntp3242
Rp3243
(dp3244
g14
I00
sg32
I01
sg15
I00
sg62
S'slimmedMETs'
p3245
sg64
g67
sg66
g67
sbsg3056
g0
(g242
g2
Ntp3246
Rp3247
(dp3248
g14
I00
sg32
I01
sg95
I00
sg15
I00
sbsg3057
g0
(g58
g2
Ntp3249
Rp3250
(dp3251
g14
I00
sg32
I01
sg15
I00
sg62
g3057
sg64
g67
sg66
g67
sbsg3058
g0
(g252
g2
Ntp3252
Rp3253
(dp3254
g14
I00
sg32
I01
sg95
F24.0
sg15
I00
sbsg3059
g0
(g242
g2
Ntp3255
Rp3256
(dp3257
g14
I00
sg32
I01
sg95
I01
sg15
I00
sbsg3060
g0
(g534
g2
Ntp3258
Rp3259
(dp3260
g14
I00
sg32
I01
sg95
S'BSMFramework/BSM3G_TNT_Maker/data/JEC/MC/Spring16_25nsV6_MC_L1FastJet_AK8PFchs.txt'
p3261
sg15
I00
sbsg3061
g0
(g534
g2
Ntp3262
Rp3263
(dp3264
g14
I00
sg32
I01
sg95
S'BSMFramework/BSM3G_TNT_Maker/data/JEC/MC/Spring16_25nsV6_MC_L2Relative_AK8PFchs.txt'
p3265
sg15
I00
sbsg3062
g0
(g534
g2
Ntp3266
Rp3267
(dp3268
g14
I00
sg32
I01
sg95
S'BSMFramework/BSM3G_TNT_Maker/data/JEC/MC/Spring16_25nsV6_MC_L3Absolute_AK8PFchs.txt'
p3269
sg15
I00
sbsg3063
g0
(g58
g2
Ntp3270
Rp3271
(dp3272
g14
I00
sg32
I01
sg15
I00
sg62
g2682
sg64
g67
sg66
g3063
sbsg3064
g0
(g58
g2
Ntp3273
Rp3274
(dp3275
g14
I00
sg32
I01
sg15
I00
sg62
S'slimmedJetsCMSTopTagCHSPacked'
p3276
sg64
g67
sg66
S'SubJets'
p3277
sbsg3065
g0
(g252
g2
Ntp3278
Rp3279
(dp3280
g14
I00
sg32
I01
sg95
I10
sg15
I00
sbsg3066
g0
(g58
g2
Ntp3281
Rp3282
(dp3283
g14
I00
sg32
I01
sg15
I00
sg62
S'TriggerResults'
p3284
sg64
S'RECO'
p3285
sg66
g67
sbsg3112
g0
(g58
g2
Ntp3286
Rp3287
(dp3288
g14
I00
sg32
I01
sg15
I00
sg62
S'egmGsfElectronIDs'
p3289
sg64
g67
sg66
S'cutBasedElectronID-Spring15-25ns-V1-standalone-veto'
p3290
sbsg3068
g0
(g534
g2
Ntp3291
Rp3292
(dp3293
g14
I00
sg32
I01
sg95
S'BSMFramework/BSM3G_TNT_Maker/data/JEC/DATA/Spring16_25nsV6_DATA_L2L3Residual_AK4PFPuppi.txt'
p3294
sg15
I00
sbsg3048
g0
(g242
g2
Ntp3295
Rp3296
(dp3297
g14
I00
sg32
I01
sg95
I01
sg15
I00
sbsg3051
g0
(g534
g2
Ntp3298
Rp3299
(dp3300
g14
I00
sg32
I01
sg95
S'BSMFramework/BSM3G_TNT_Maker/data/JEC/DATA/Spring16_25nsV6_DATA_L3Absolute_AK4PFPuppi.txt'
p3301
sg15
I00
sbsg3071
g0
(g534
g2
Ntp3302
Rp3303
(dp3304
g14
I00
sg32
I01
sg95
S'BSMFramework/BSM3G_TNT_Maker/data/JEC/DATA/Spring16_25nsV6_DATA_L1FastJet_AK4PFPuppi.txt'
p3305
sg15
I00
sbsg3072
g0
(g58
g2
Ntp3306
Rp3307
(dp3308
g14
I00
sg32
I01
sg15
I00
sg62
S'selectedPatTrigger'
p3309
sg64
g67
sg66
g67
sbsg2724
g0
(g58
g2
Ntp3310
Rp3311
(dp3312
g14
I00
sg32
I01
sg15
I00
sg62
S'slimmedJets'
p3313
sg64
g67
sg66
g67
sbsg3073
g0
(g58
g2
Ntp3314
Rp3315
(dp3316
g14
I00
sg32
I01
sg15
I00
sg62
g2759
sg64
g67
sg66
g3073
sbsg3074
g0
(g58
g2
Ntp3317
Rp3318
(dp3319
g14
I00
sg32
I01
sg15
I00
sg62
g2759
sg64
g67
sg66
g3074
sbsg3075
g0
(g534
g2
Ntp3320
Rp3321
(dp3322
g14
I00
sg32
I01
sg95
S'BSMFramework/BSM3G_TNT_Maker/data/JEC/DATA/Spring16_25nsV6_DATA_L2L3Residual_AK8PFchs.txt'
p3323
sg15
I00
sbsg3076
g0
(g534
g2
Ntp3324
Rp3325
(dp3326
g14
I00
sg32
I01
sg95
S'BSMFramework/BSM3G_TNT_Maker/data/JEC/DATA/Spring16_25nsV6_DATA_L2Relative_AK8PFchs.txt'
p3327
sg15
I00
sbsg3077
g0
(g534
g2
Ntp3328
Rp3329
(dp3330
g14
I00
sg32
I01
sg95
S'BSMFramework/BSM3G_TNT_Maker/data/JEC/DATA/Spring16_25nsV6_DATA_L3Absolute_AK8PFchs.txt'
p3331
sg15
I00
sbsg3078
g0
(g534
g2
Ntp3332
Rp3333
(dp3334
g14
I00
sg32
I01
sg95
S'BSMFramework/BSM3G_TNT_Maker/data/JEC/DATA/Spring16_25nsV6_DATA_L1FastJet_AK8PFchs.txt'
p3335
sg15
I00
sbsg3079
g0
(g242
g2
Ntp3336
Rp3337
(dp3338
g14
I00
sg32
I01
sg95
I01
sg15
I00
sbsg3080
g0
(g252
g2
Ntp3339
Rp3340
(dp3341
g14
I00
sg32
I01
sg95
F10.0
sg15
I00
sbsg3081
g0
(g242
g2
Ntp3342
Rp3343
(dp3344
g14
I00
sg32
I01
sg95
I00
sg15
I00
sbsg3082
g0
(g534
g2
Ntp3345
Rp3346
(dp3347
g14
I00
sg32
I01
sg95
S'BSMFramework/BSM3G_TNT_Maker/data/JER/Spring16_25nsV6_MC_SF_AK8PFPuppi.txt'
p3348
sg15
I00
sbsg3083
g0
(g534
g2
Ntp3349
Rp3350
(dp3351
g14
I00
sg32
I01
sg95
S'BSMFramework/BSM3G_TNT_Maker/data/BTAGReweight/csv_rwt_fit_hf_v2_final_2016_06_30test.root'
p3352
sg15
I00
sbsg3084
g0
(g534
g2
Ntp3353
Rp3354
(dp3355
g14
I00
sg32
I01
sg95
S'BSMFramework/BSM3G_TNT_Maker/data/BTAGReweight/csv_rwt_fit_lf_v2_final_2016_06_30test.root'
p3356
sg15
I00
sbsg3085
g0
(g242
g2
Ntp3357
Rp3358
(dp3359
g14
I00
sg32
I01
sg95
I01
sg15
I00
sbsg14
I00
sg3086
g0
(g58
g2
Ntp3360
Rp3361
(dp3362
g14
I00
sg32
I01
sg15
I00
sg62
S'slimmedJetsPuppi'
p3363
sg64
g67
sg66
g67
sbsg3087
g0
(g242
g2
Ntp3364
Rp3365
(dp3366
g14
I00
sg32
I01
sg95
I00
sg15
I00
sbsg3088
g0
(g58
g2
Ntp3367
Rp3368
(dp3369
g14
I00
sg32
I01
sg15
I00
sg62
g63
sg64
g67
sg66
g67
sbsg3089
g0
(g58
g2
Ntp3370
Rp3371
(dp3372
g14
I00
sg32
I01
sg15
I00
sg62
S'electronMVAValueMapProducer'
p3373
sg64
g67
sg66
S'ElectronMVAEstimatorRun2Spring15NonTrig25nsV1Categories'
p3374
sbsg3090
g0
(g534
g2
Ntp3375
Rp3376
(dp3377
g14
I00
sg32
I01
sg95
S'BSMFramework/BSM3G_TNT_Maker/data/JER/Spring16_25nsV6_MC_PtResolution_AK8PFchs.txt'
p3378
sg15
I00
sbsg3091
g0
(g252
g2
Ntp3379
Rp3380
(dp3381
g14
I00
sg32
I01
sg95
I50
sg15
I00
sbsg35
S'BSM3G_TNT_Maker'
p3382
sg3092
g0
(g534
g2
Ntp3383
Rp3384
(dp3385
g14
I00
sg32
I01
sg95
S'BSMFramework/BSM3G_TNT_Maker/data/JER/Spring16_25nsV6_MC_SF_AK8PFchs.txt'
p3386
sg15
I00
sbsg3093
g0
(g252
g2
Ntp3387
Rp3388
(dp3389
g14
I00
sg32
I01
sg95
F24.0
sg15
I00
sbsg3094
g0
(g242
g2
Ntp3390
Rp3391
(dp3392
g14
I00
sg32
I01
sg95
I01
sg15
I00
sbsg3095
g0
(g252
g2
Ntp3393
Rp3394
(dp3395
g14
I00
sg32
I01
sg95
F2.4
sg15
I00
sbsg3096
g0
(g58
g2
Ntp3396
Rp3397
(dp3398
g14
I00
sg32
I01
sg15
I00
sg62
S'slimmedMuons'
p3399
sg64
g67
sg66
g67
sbsg3097
g0
(g58
g2
Ntp3400
Rp3401
(dp3402
g14
I00
sg32
I01
sg15
I00
sg62
g3284
sg64
S'HLT'
p3403
sg66
g67
sbsg3098
g0
(g252
g2
Ntp3404
Rp3405
(dp3406
g14
I00
sg32
I01
sg95
F15.0
sg15
I00
sbsg3099
g0
(g242
g2
Ntp3407
Rp3408
(dp3409
g14
I00
sg32
I01
sg95
I00
sg15
I00
sbsg3100
g0
(g58
g2
Ntp3410
Rp3411
(dp3412
g14
I00
sg32
I01
sg15
I00
sg62
g2759
sg64
g67
sg66
g3100
sbsg3101
g0
(g58
g2
Ntp3413
Rp3414
(dp3415
g14
I00
sg32
I01
sg15
I00
sg62
S'egmGsfElectronIDs'
p3416
sg64
g67
sg66
S'mvaEleID-Spring15-25ns-Trig-V1-wp90'
p3417
sbsg3102
g0
(g534
g2
Ntp3418
Rp3419
(dp3420
g14
I00
sg32
I01
sg95
S'BSMFramework/BSM3G_TNT_Maker/data/JEC/MC/Spring16_25nsV6_MC_Uncertainty_AK4PFPuppi.txt'
p3421
sg15
I00
sbsg3103
g0
(g252
g2
Ntp3422
Rp3423
(dp3424
g14
I00
sg32
I01
sg95
F50.0
sg15
I00
sbsg3104
g0
(g242
g2
Ntp3425
Rp3426
(dp3427
g14
I00
sg32
I01
sg95
I00
sg15
I00
sbsg3105
g0
(g242
g2
Ntp3428
Rp3429
(dp3430
g14
I00
sg32
I01
sg95
I00
sg15
I00
sbsg3106
g0
(g242
g2
Ntp3431
Rp3432
(dp3433
g14
I00
sg32
I01
sg95
I00
sg15
I00
sbsg3107
g0
(g242
g2
Ntp3434
Rp3435
(dp3436
g14
I00
sg32
I01
sg95
I01
sg15
I00
sbsg107
g0
(g58
g2
Ntp3437
Rp3438
(dp3439
g14
I00
sg32
I01
sg15
I00
sg62
g111
sg64
g67
sg66
g67
sbsg3108
g0
(g242
g2
Ntp3440
Rp3441
(dp3442
g14
I00
sg32
I01
sg95
I00
sg15
I00
sbsg3109
g0
(g534
g2
Ntp3443
Rp3444
(dp3445
g14
I00
sg32
I01
sg95
S'BSMFramework/BSM3G_TNT_Maker/data/JEC/MC/Spring16_25nsV6_MC_Uncertainty_AK8PFchs.txt'
p3446
sg15
I00
sbsg3110
g0
(g58
g2
Ntp3447
Rp3448
(dp3449
g14
I00
sg32
I01
sg15
I00
sg62
g2759
sg64
g67
sg66
g3110
sbsg3111
g0
(g58
g2
Ntp3450
Rp3451
(dp3452
g14
I00
sg32
I01
sg15
I00
sg62
S'slimmedTaus'
p3453
sg64
g67
sg66
g67
sbsg3067
g0
(g242
g2
Ntp3454
Rp3455
(dp3456
g14
I00
sg32
I01
sg95
I00
sg15
I00
sbsg3113
g0
(g58
g2
Ntp3457
Rp3458
(dp3459
g14
I00
sg32
I01
sg15
I00
sg62
S'egmGsfElectronIDs'
p3460
sg64
g67
sg66
S'heepElectronID-HEEPV60'
p3461
sbsg3114
g0
(g534
g2
Ntp3462
Rp3463
(dp3464
g14
I00
sg32
I01
sg95
S'BSMFramework/BSM3G_TNT_Maker/data/JER/Spring16_25nsV6_MC_PtResolution_AK4PFchs.txt'
p3465
sg15
I00
sbsg3115
g0
(g242
g2
Ntp3466
Rp3467
(dp3468
g14
I00
sg32
I01
sg95
I01
sg15
I00
sbsg3116
g0
(g534
g2
Ntp3469
Rp3470
(dp3471
g14
I00
sg32
I01
sg95
S'BSMFramework/BSM3G_TNT_Maker/data/JEC/DATA/Spring16_25nsV6_DATA_Uncertainty_AK8PFchs.txt'
p3472
sg15
I00
sbsg3117
g0
(g252
g2
Ntp3473
Rp3474
(dp3475
g14
I00
sg32
I01
sg95
I50
sg15
I00
sbsg3118
g0
(g252
g2
Ntp3476
Rp3477
(dp3478
g14
I00
sg32
I01
sg95
F24.0
sg15
I00
sbsg3119
g0
(g252
g2
Ntp3479
Rp3480
(dp3481
g14
I00
sg32
I01
sg95
F5.0
sg15
I00
sbsg3120
g0
(g58
g2
Ntp3482
Rp3483
(dp3484
g14
I00
sg32
I01
sg15
I00
sg62
g2754
sg64
g67
sg66
g67
sbsg3121
g0
(g1945
g2
Ntp3485
Rp3486
(dp3487
g14
I00
sg32
I01
sg95
I2
sg15
I00
sbsg3122
g0
(g242
g2
Ntp3488
Rp3489
(dp3490
g14
I00
sg32
I01
sg95
I00
sg15
I00
sbsg3123
g0
(g58
g2
Ntp3491
Rp3492
(dp3493
g14
I00
sg32
I01
sg15
I00
sg62
S'slimmedMETsPuppi'
p3494
sg64
g67
sg66
g67
sbsg3124
g0
(g252
g2
Ntp3495
Rp3496
(dp3497
g14
I00
sg32
I01
sg95
F7.0
sg15
I00
sbsg3125
g0
(g534
g2
Ntp3498
Rp3499
(dp3500
g14
I00
sg32
I01
sg95
S'BSMFramework/BSM3G_TNT_Maker/data/JEC/DATA/Spring16_25nsV6_DATA_Uncertainty_AK4PFPuppi.txt'
p3501
sg15
I00
sbsg3126
g0
(g58
g2
Ntp3502
Rp3503
(dp3504
g14
I00
sg32
I01
sg15
I00
sg62
S'egmGsfElectronIDs'
p3505
sg64
g67
sg66
S'cutBasedElectronID-Spring15-25ns-V1-standalone-medium'
p3506
sbsg3127
g0
(g242
g2
Ntp3507
Rp3508
(dp3509
g14
I00
sg32
I01
sg95
I00
sg15
I00
sbsg3146
g0
(g58
g2
Ntp3510
Rp3511
(dp3512
g14
I00
sg32
I01
sg15
I00
sg62
g2682
sg64
g67
sg66
g3146
sbsg3129
g0
(g58
g2
Ntp3513
Rp3514
(dp3515
g14
I00
sg32
I01
sg15
I00
sg62
S'egmGsfElectronIDs'
p3516
sg64
g67
sg66
S'mvaEleID-Spring15-25ns-Trig-V1-wp80'
p3517
sbsg3130
g0
(g58
g2
Ntp3518
Rp3519
(dp3520
g14
I00
sg32
I01
sg15
I00
sg62
S'egmGsfElectronIDs'
p3521
sg64
g67
sg66
S'mvaEleID-Spring15-25ns-nonTrig-V1-wp80'
p3522
sbsg3131
g0
(g242
g2
Ntp3523
Rp3524
(dp3525
g14
I00
sg32
I01
sg95
I00
sg15
I00
sbsg3132
g0
(g242
g2
Ntp3526
Rp3527
(dp3528
g14
I00
sg32
I01
sg95
I00
sg15
I00
sbsg3133
g0
(g58
g2
Ntp3529
Rp3530
(dp3531
g14
I00
sg32
I01
sg15
I00
sg62
S'egmGsfElectronIDs'
p3532
sg64
g67
sg66
S'mvaEleID-Spring15-25ns-nonTrig-V1-wp90'
p3533
sbsg3134
g0
(g58
g2
Ntp3534
Rp3535
(dp3536
g14
I00
sg32
I01
sg15
I00
sg62
g2759
sg64
g67
sg66
g3134
sbsg3135
g0
(g58
g2
Ntp3537
Rp3538
(dp3539
g14
I00
sg32
I01
sg15
I00
sg62
S'electronMVAValueMapProducer'
p3540
sg64
g67
sg66
S'ElectronMVAEstimatorRun2Spring15NonTrig25nsV1Values'
p3541
sbsg3136
g0
(g242
g2
Ntp3542
Rp3543
(dp3544
g14
I00
sg32
I01
sg95
I00
sg15
I00
sbsg3137
g0
(g58
g2
Ntp3545
Rp3546
(dp3547
g14
I00
sg32
I01
sg15
I00
sg62
g2682
sg64
g67
sg66
g3137
sbsg3138
g0
(g19
g20
(lp3548
S'HLT_Ele17_Ele12_CaloIdL_TrackIdL_IsoVL_DZ_v'
p3549
aS'HLT_Mu17_TrkIsoVVL_Mu8_TrkIsoVVL_DZ_v'
p3550
aS'HLT_Mu17_TrkIsoVVL_TkMu8_TrkIsoVVL_DZ_v'
p3551
aS'HLT_IsoMu20_v'
p3552
aS'HLT_Mu17_TrkIsoVVL_Ele12_CaloIdL_TrackIdL_IsoVL_v'
p3553
aS'HLT_Mu8_TrkIsoVVL_Ele17_CaloIdL_TrackIdL_IsoVL_v'
p3554
aS'HLT_Ele27_eta2p1_WPTight_Gsf_v'
p3555
aS'HLT_IsoMu22_v'
p3556
aS'HLT_IsoTkMu22_v'
p3557
aS'HLT_Ele23_Ele12_CaloIdL_TrackIdL_IsoVL_DZ_v'
p3558
aS'HLT_Mu23_TrkIsoVVL_Ele12_CaloIdL_TrackIdL_IsoVL_v'
p3559
aS'HLT_Mu8_TrkIsoVVL_Ele23_CaloIdL_TrackIdL_IsoVL_v'
p3560
ag3550
ag3551
aS'HLT_Ele23_WPLoose_Gsf_v'
p3561
aS'HLT_Ele23_CaloIdL_TrackIdL_IsoVL_v'
p3562
aS'HLT_IsoTkMu20_v'
p3563
aS'HLT_DiMu9_Ele9_CaloIdL_TrackIdL_v'
p3564
aS'HLT_Mu8_DiEle12_CaloIdL_TrackIdL_v'
p3565
aS'HLT_TripleMu_12_10_5_v'
p3566
aS'HLT_Ele16_Ele12_Ele8_CaloIdL_TrackIdL_v'
p3567
aS'HLT_DoubleEle33_CaloIdL_GsfTrkIdVL_v'
p3568
atp3569
Rp3570
(dp3571
g14
I00
sg32
I01
sg15
I00
sg33
I1
sbsg3139
g0
(g242
g2
Ntp3572
Rp3573
(dp3574
g14
I00
sg32
I01
sg95
I00
sg15
I00
sbsg3140
g0
(g58
g2
Ntp3575
Rp3576
(dp3577
g14
I00
sg32
I01
sg15
I00
sg62
S'egmGsfElectronIDs'
p3578
sg64
g67
sg66
S'cutBasedElectronID-Spring15-25ns-V1-standalone-tight'
p3579
sbsg15
I00
sg3141
g0
(g534
g2
Ntp3580
Rp3581
(dp3582
g14
I00
sg32
I01
sg95
S'BSMFramework/BSM3G_TNT_Maker/data/JER/Spring16_25nsV6_MC_SF_AK4PFPuppi.txt'
p3583
sg15
I00
sbsg3142
g0
(g534
g2
Ntp3584
Rp3585
(dp3586
g14
I00
sg32
I01
sg95
S'BSMFramework/BSM3G_TNT_Maker/data/JEC/DATA/Spring16_25nsV6_DATA_Uncertainty_AK4PFchs.txt'
p3587
sg15
I00
sbsg3143
g0
(g534
g2
Ntp3588
Rp3589
(dp3590
g14
I00
sg32
I01
sg95
S'BSMFramework/BSM3G_TNT_Maker/data/JEC/MC/Spring16_25nsV6_MC_Uncertainty_AK4PFchs.txt'
p3591
sg15
I00
sbsg3144
g0
(g58
g2
Ntp3592
Rp3593
(dp3594
g14
I00
sg32
I01
sg15
I00
sg62
S'patTrigger'
p3595
sg64
g67
sg66
g67
sbsg3145
g0
(g58
g2
Ntp3596
Rp3597
(dp3598
g14
I00
sg32
I01
sg15
I00
sg62
g430
sg64
g67
sg66
g67
sbsg3128
g0
(g58
g2
Ntp3599
Rp3600
(dp3601
g14
I00
sg32
I01
sg15
I00
sg62
g2759
sg64
g67
sg66
g3128
sbsg34
S'TNT'
p3602
sg3147
g0
(g242
g2
Ntp3603
Rp3604
(dp3605
g14
I00
sg32
I01
sg95
I01
sg15
I00
sbsbasbsg15
I00
sg34
g2976
sbsS'MuonDetLayerGeometryESProducer'
p3606
g0
(g7
g2
Ntp3607
Rp3608
(dp3609
g11
(lp3610
sg14
I00
sg15
I00
sg16
I40
sg17
g18
sg34
g3606
sg35
g3606
sbsS'EcalEndcapGeometryFromDBEP'
p3611
g0
(g7
g2
Ntp3612
Rp3613
(dp3614
g11
(lp3615
g2660
asg14
I00
sg15
I01
sg16
I40
sg17
g18
sg34
g3611
sg2660
g0
(g242
g2
Ntp3616
Rp3617
(dp3618
g14
I00
sg32
I01
sg95
I01
sg15
I01
sbsg35
g3611
sbsS'MessageLogger'
p3619
g0
(g2302
g2
Ntp3620
Rp3621
(dp3622
g14
I00
sS'suppressInfo'
p3623
g0
(g19
g20
(lp3624
tp3625
Rp3626
(dp3627
g14
I00
sg32
I00
sg15
I00
sg33
I1
sbsS'suppressDebug'
p3628
g0
(g19
g20
(lp3629
tp3630
Rp3631
(dp3632
g14
I00
sg32
I00
sg15
I00
sg33
I1
sbsS'cout'
p3633
g0
(g75
g2
Ntp3634
Rp3635
(dp3636
g14
I00
sg32
I00
sS'placeholder'
p3637
g0
(g242
g2
Ntp3638
Rp3639
(dp3640
g14
I00
sg32
I00
sg95
I01
sg15
I00
sbsg15
I00
sg11
(lp3641
g3637
asbsg16
I10
sS'debugModules'
p3642
g0
(g19
g20
(lp3643
tp3644
Rp3645
(dp3646
g14
I00
sg32
I00
sg15
I00
sg33
I1
sbsg35
g3619
sS'fwkJobReports'
p3647
g0
(g19
g20
(lp3648
S'FrameworkJobReport'
p3649
atp3650
Rp3651
(dp3652
g14
I00
sg32
I00
sg15
I00
sg33
I1
sbsg11
(lp3653
g3623
aS'debugs'
p3654
ag3628
ag3633
aS'cerr_stats'
p3655
aS'warnings'
p3656
aS'default'
p3657
aS'statistics'
p3658
aS'cerr'
p3659
ag3649
aS'suppressWarning'
p3660
aS'errors'
p3661
aS'destinations'
p3662
ag3642
aS'infos'
p3663
aS'categories'
p3664
ag3647
asg3658
g0
(g19
g20
(lp3665
g3655
atp3666
Rp3667
(dp3668
g14
I00
sg32
I00
sg15
I00
sg33
I1
sbsg17
g18
sg3662
g0
(g19
g20
(lp3669
g3656
ag3661
ag3663
ag3654
ag3633
ag3659
atp3670
Rp3671
(dp3672
g14
I00
sg32
I00
sg15
I00
sg33
I1
sbsg3654
g0
(g75
g2
Ntp3673
Rp3674
(dp3675
g14
I00
sg32
I00
sg3637
g0
(g242
g2
Ntp3676
Rp3677
(dp3678
g14
I00
sg32
I00
sg95
I01
sg15
I00
sbsg15
I00
sg11
(lp3679
g3637
asbsg3656
g0
(g75
g2
Ntp3680
Rp3681
(dp3682
g14
I00
sg32
I00
sg3637
g0
(g242
g2
Ntp3683
Rp3684
(dp3685
g14
I00
sg32
I00
sg95
I01
sg15
I00
sbsg15
I00
sg11
(lp3686
g3637
asbsg3661
g0
(g75
g2
Ntp3687
Rp3688
(dp3689
g14
I00
sg32
I00
sg3637
g0
(g242
g2
Ntp3690
Rp3691
(dp3692
g14
I00
sg32
I00
sg95
I01
sg15
I00
sbsg15
I00
sg11
(lp3693
g3637
asbsg3649
g0
(g75
g2
Ntp3694
Rp3695
(dp3696
g14
I00
sg32
I00
sg15
I00
sg3657
g0
(g75
g2
Ntp3697
Rp3698
(dp3699
g14
I00
sg32
I00
sS'limit'
p3700
g0
(g1945
g2
Ntp3701
Rp3702
(dp3703
g14
I00
sg32
I00
sg95
I0
sg15
I00
sbsg15
I00
sg11
(lp3704
g3700
asbsS'FwkJob'
p3705
g0
(g75
g2
Ntp3706
Rp3707
(dp3708
g14
I00
sg32
I00
sg15
I00
sg3700
g0
(g1945
g2
Ntp3709
Rp3710
(dp3711
g14
I00
sg32
I00
sg95
I10000000
sg15
I00
sbsg11
(lp3712
S'optionalPSet'
p3713
ag3700
asg3713
g0
(g242
g2
Ntp3714
Rp3715
(dp3716
g14
I00
sg32
I00
sg95
I01
sg15
I00
sbsbsg11
(lp3717
g3657
ag3713
ag3705
asg3713
g0
(g242
g2
Ntp3718
Rp3719
(dp3720
g14
I00
sg32
I00
sg95
I01
sg15
I00
sbsbsg3660
g0
(g19
g20
(lp3721
tp3722
Rp3723
(dp3724
g14
I00
sg32
I00
sg15
I00
sg33
I1
sbsg3663
g0
(g75
g2
Ntp3725
Rp3726
(dp3727
g14
I00
sg32
I00
sg15
I00
sS'Root_NoDictionary'
p3728
g0
(g75
g2
Ntp3729
Rp3730
(dp3731
g14
I00
sg32
I00
sg15
I00
sg3700
g0
(g1945
g2
Ntp3732
Rp3733
(dp3734
g14
I00
sg32
I00
sg95
I0
sg15
I00
sbsg11
(lp3735
g3713
ag3700
asg3713
g0
(g242
g2
Ntp3736
Rp3737
(dp3738
g14
I00
sg32
I00
sg95
I01
sg15
I00
sbsbsg11
(lp3739
g3713
ag3728
ag3637
asg3713
g0
(g242
g2
Ntp3740
Rp3741
(dp3742
g14
I00
sg32
I00
sg95
I01
sg15
I00
sbsg3637
g0
(g242
g2
Ntp3743
Rp3744
(dp3745
g14
I00
sg32
I00
sg95
I01
sg15
I00
sbsbsg3664
g0
(g19
g20
(lp3746
g3705
aS'FwkReport'
p3747
aS'FwkSummary'
p3748
ag3728
atp3749
Rp3750
(dp3751
g14
I00
sg32
I00
sg15
I00
sg33
I1
sbsg15
I00
sg3655
g0
(g75
g2
Ntp3752
Rp3753
(dp3754
g14
I00
sg32
I00
sg15
I00
sg3713
g0
(g242
g2
Ntp3755
Rp3756
(dp3757
g14
I00
sg32
I00
sg95
I01
sg15
I00
sbsg11
(lp3758
S'threshold'
p3759
aS'output'
p3760
ag3713
asg3759
g0
(g91
g2
Ntp3761
Rp3762
(dp3763
g14
I00
sg32
I00
sg95
S'WARNING'
p3764
sg15
I00
sbsg3760
g0
(g91
g2
Ntp3765
Rp3766
(dp3767
g14
I00
sg32
I00
sg95
g3659
sg15
I00
sbsbsg3657
g0
(g75
g2
Ntp3768
Rp3769
(dp3770
g14
I00
sg32
I00
sg15
I00
sg11
(lp3771
sbsg3659
g0
(g75
g2
Ntp3772
Rp3773
(dp3774
g14
I00
sg32
I00
sS'noTimeStamps'
p3775
g0
(g242
g2
Ntp3776
Rp3777
(dp3778
g14
I00
sg32
I00
sg95
I00
sg15
I00
sbsg3747
g0
(g75
g2
Ntp3779
Rp3780
(dp3781
g14
I00
sg32
I00
sg15
I01
sS'reportEvery'
p3782
g0
(g1945
g2
Ntp3783
Rp3784
(dp3785
g14
I00
sg32
I00
sg95
I10000
sg15
I01
sbsg3700
g0
(g1945
g2
Ntp3786
Rp3787
(dp3788
g14
I00
sg32
I00
sg95
I10000000
sg15
I00
sbsg11
(lp3789
g3782
ag3713
ag3700
asg3713
g0
(g242
g2
Ntp3790
Rp3791
(dp3792
g14
I00
sg32
I00
sg95
I01
sg15
I00
sbsbsg15
I00
sg3657
g0
(g75
g2
Ntp3793
Rp3794
(dp3795
g14
I00
sg32
I00
sg3700
g0
(g1945
g2
Ntp3796
Rp3797
(dp3798
g14
I00
sg32
I00
sg95
I10000000
sg15
I00
sbsg15
I00
sg11
(lp3799
g3700
asbsg3728
g0
(g75
g2
Ntp3800
Rp3801
(dp3802
g14
I00
sg32
I00
sg15
I00
sg3700
g0
(g1945
g2
Ntp3803
Rp3804
(dp3805
g14
I00
sg32
I00
sg95
I0
sg15
I00
sbsg11
(lp3806
g3713
ag3700
asg3713
g0
(g242
g2
Ntp3807
Rp3808
(dp3809
g14
I00
sg32
I00
sg95
I01
sg15
I00
sbsbsS'INFO'
p3810
g0
(g75
g2
Ntp3811
Rp3812
(dp3813
g14
I00
sg32
I00
sg3700
g0
(g1945
g2
Ntp3814
Rp3815
(dp3816
g14
I00
sg32
I00
sg95
I0
sg15
I00
sbsg15
I00
sg11
(lp3817
g3700
asbsg3713
g0
(g242
g2
Ntp3818
Rp3819
(dp3820
g14
I00
sg32
I00
sg95
I01
sg15
I00
sbsg3705
g0
(g75
g2
Ntp3821
Rp3822
(dp3823
g14
I00
sg32
I00
sg15
I00
sg3700
g0
(g1945
g2
Ntp3824
Rp3825
(dp3826
g14
I00
sg32
I00
sg95
I0
sg15
I00
sbsg11
(lp3827
g3713
ag3700
asg3713
g0
(g242
g2
Ntp3828
Rp3829
(dp3830
g14
I00
sg32
I00
sg95
I01
sg15
I00
sbsbsg3748
g0
(g75
g2
Ntp3831
Rp3832
(dp3833
g14
I00
sg32
I00
sg15
I00
sg3782
g0
(g1945
g2
Ntp3834
Rp3835
(dp3836
g14
I00
sg32
I00
sg95
I1
sg15
I00
sbsg3700
g0
(g1945
g2
Ntp3837
Rp3838
(dp3839
g14
I00
sg32
I00
sg95
I10000000
sg15
I00
sbsg11
(lp3840
g3782
ag3713
ag3700
asg3713
g0
(g242
g2
Ntp3841
Rp3842
(dp3843
g14
I00
sg32
I00
sg95
I01
sg15
I00
sbsbsg11
(lp3844
g3810
ag3775
ag3747
ag3657
ag3728
ag3759
ag3705
ag3748
ag3713
asg3759
g0
(g91
g2
Ntp3845
Rp3846
(dp3847
g14
I00
sg32
I00
sg95
g3810
sg15
I00
sbsbsbsg3602
g2987
sS'_Process__services'
p3848
(dp3849
g3619
g3621
sS'DQMStore'
p3850
g0
(g2302
g2
Ntp3851
Rp3852
(dp3853
g11
(lp3854
S'referenceFileName'
p3855
aS'verbose'
p3856
aS'collateHistograms'
p3857
aS'enableMultiThread'
p3858
aS'forceResetOnBeginLumi'
p3859
aS'LSbasedMode'
p3860
aS'verboseQT'
p3861
asg14
I00
sg3856
g0
(g1945
g2
Ntp3862
Rp3863
(dp3864
g14
I00
sg32
I00
sg95
I0
sg15
I00
sbsg3857
g0
(g242
g2
Ntp3865
Rp3866
(dp3867
g14
I00
sg32
I00
sg95
I00
sg15
I00
sbsg3855
g0
(g91
g2
Ntp3868
Rp3869
(dp3870
g14
I00
sg32
I00
sg95
g67
sg15
I00
sbsg3858
g0
(g242
g2
Ntp3871
Rp3872
(dp3873
g14
I00
sg32
I00
sg95
I00
sg15
I00
sbsg3859
g0
(g242
g2
Ntp3874
Rp3875
(dp3876
g14
I00
sg32
I00
sg95
I00
sg15
I00
sbsg16
I10
sg3860
g0
(g242
g2
Ntp3877
Rp3878
(dp3879
g14
I00
sg32
I00
sg95
I00
sg15
I00
sbsg17
g18
sg3861
g0
(g1945
g2
Ntp3880
Rp3881
(dp3882
g14
I00
sg32
I00
sg95
I0
sg15
I00
sbsg35
g3850
sg15
I00
sbsg2323
g2325
sg2301
g2304
ssg3850
g3852
sS'CastorGeometryFromDBEP'
p3883
g0
(g7
g2
Ntp3884
Rp3885
(dp3886
g11
(lp3887
g2660
asg14
I00
sg15
I00
sg16
I40
sg17
g18
sg34
g3883
sg2660
g0
(g242
g2
Ntp3888
Rp3889
(dp3890
g14
I00
sg32
I01
sg95
I00
sg15
I00
sbsg35
g3883
sbsS'trackerGeometryDB'
p3891
g0
(g7
g2
Ntp3892
Rp3893
(dp3894
g11
(lp3895
g2317
aS'fromDDD'
p3896
ag2660
aS'alignmentsLabel'
p3897
asg14
I00
sg2317
g0
(g91
g2
Ntp3898
Rp3899
(dp3900
g14
I00
sg32
I01
sg95
g67
sg15
I00
sbsg15
I00
sg3897
g0
(g91
g2
Ntp3901
Rp3902
(dp3903
g14
I00
sg32
I01
sg95
g67
sg15
I00
sbsg17
g18
sg16
I40
sg34
g3891
sg3896
g0
(g242
g2
Ntp3904
Rp3905
(dp3906
g14
I00
sg32
I01
sg95
I00
sg15
I00
sbsg2660
g0
(g242
g2
Ntp3907
Rp3908
(dp3909
g14
I00
sg32
I01
sg95
I01
sg15
I00
sbsg35
S'TrackerDigiGeometryESModule'
p3910
sbsS'eegeom'
p3911
g0
(g2839
g2
Ntp3912
Rp3913
(dp3914
g11
(lp3915
S'iovIsRunNotTime'
p3916
aS'recordName'
p3917
aS'firstValid'
p3918
asg14
I00
sg15
I00
sg16
I6
sg3917
g0
(g91
g2
Ntp3919
Rp3920
(dp3921
g14
I00
sg32
I01
sg95
S'EcalMappingRcd'
p3922
sg15
I00
sbsg17
S'/cvmfs/cms.cern.ch/slc6_amd64_gcc530/cms/cmssw/CMSSW_8_0_12/python/Geometry/EcalMapping/EcalMappingRecord_cfi.py'
p3923
sg3918
g0
(cFWCore.ParameterSet.Types
vuint32
p3924
g20
(lp3925
I1
atp3926
Rp3927
(dp3928
g14
I00
sg32
I01
sg15
I00
sbsg34
g3911
sg3916
g0
(g242
g2
Ntp3929
Rp3930
(dp3931
g14
I00
sg32
I01
sg95
I01
sg15
I00
sbsg35
S'EmptyESSource'
p3932
sbsg2232
g209
sS'mvaEleID_Spring15_50ns_Trig_V1_wp80'
p3933
g0
(g75
g2
Ntp3934
Rp3935
(dp3936
g14
I00
sg32
I01
sg15
I01
sg226
g0
(g91
g2
Ntp3937
Rp3938
(dp3939
g14
I00
sg32
I01
sg95
S'mvaEleID-Spring15-50ns-Trig-V1-wp80'
p3940
sg15
I00
sbsg231
g0
(g73
g20
(lp3941
g0
(g75
g2
Ntp3942
Rp3943
(dp3944
g14
I00
sg32
I01
sg1983
g0
(g58
g2
Ntp3945
Rp3946
(dp3947
g14
I00
sg32
I01
sg15
I00
sg62
S'electronMVAValueMapProducer'
p3948
sg64
g67
sg66
S'ElectronMVAEstimatorRun2Spring15Trig50nsV1Values'
p3949
sbsg1989
g0
(g58
g2
Ntp3950
Rp3951
(dp3952
g14
I00
sg32
I01
sg15
I00
sg62
S'electronMVAValueMapProducer'
p3953
sg64
g67
sg66
S'ElectronMVAEstimatorRun2Spring15Trig50nsV1Categories'
p3954
sbsg236
g0
(g91
g2
Ntp3955
Rp3956
(dp3957
g14
I00
sg32
I01
sg95
g1998
sg15
I00
sbsg241
g0
(g242
g2
Ntp3958
Rp3959
(dp3960
g14
I00
sg32
I01
sg95
I01
sg15
I00
sbsg2002
g0
(g2003
g20
(lp3961
F0.981841
aF0.946762
aF0.79704
atp3962
Rp3963
(dp3964
g14
I00
sg32
I01
sg15
I00
sbsg246
g0
(g242
g2
Ntp3965
Rp3966
(dp3967
g14
I00
sg32
I01
sg95
I00
sg15
I00
sbsg11
(lp3968
g1983
ag1989
ag236
ag241
ag2002
ag246
asg15
I00
sbatp3969
Rp3970
(dp3971
g14
I00
sg32
I01
sg15
I00
sg33
I1
sbsg608
g0
(g242
g2
Ntp3972
Rp3973
(dp3974
g14
I00
sg32
I00
sg95
I01
sg15
I00
sbsg11
(lp3975
g226
ag231
ag608
asg34
g3933
sbsS'_Process__vpsets'
p3976
(dp3977
g205
g203
ssS'EcalTrigTowerConstituentsMapBuilder'
p3978
g0
(g7
g2
Ntp3979
Rp3980
(dp3981
g11
(lp3982
S'MapFile'
p3983
asg14
I00
sg15
I00
sg3983
g0
(g91
g2
Ntp3984
Rp3985
(dp3986
g14
I00
sg32
I00
sg95
S'Geometry/EcalMapping/data/EndCap_TTMap.txt'
p3987
sg15
I00
sbsg17
g18
sg16
I40
sg34
g3978
sg35
g3978
sbsS'siStripBackPlaneCorrectionDepESProducer'
p3988
g0
(g7
g2
Ntp3989
Rp3990
(dp3991
g11
(lp3992
S'LatencyRecord'
p3993
aS'BackPlaneCorrectionDeconvMode'
p3994
aS'BackPlaneCorrectionPeakMode'
p3995
asg14
I00
sg15
I00
sg16
I40
sg17
g18
sg3993
g0
(g75
g2
Ntp3996
Rp3997
(dp3998
g14
I00
sg32
I01
sg15
I00
sS'label'
p3999
g0
(g91
g2
Ntp4000
Rp4001
(dp4002
g14
I00
sg32
I00
sg95
g67
sg15
I00
sbsg2813
g0
(g91
g2
Ntp4003
Rp4004
(dp4005
g14
I00
sg32
I01
sg95
S'SiStripLatencyRcd'
p4006
sg15
I00
sbsg11
(lp4007
g2813
ag3999
asbsg3995
g0
(g75
g2
Ntp4008
Rp4009
(dp4010
g14
I00
sg32
I01
sg15
I00
sg3999
g0
(g91
g2
Ntp4011
Rp4012
(dp4013
g14
I00
sg32
I00
sg95
S'peak'
p4014
sg15
I00
sbsg2813
g0
(g91
g2
Ntp4015
Rp4016
(dp4017
g14
I00
sg32
I01
sg95
S'SiStripBackPlaneCorrectionRcd'
p4018
sg15
I00
sbsg11
(lp4019
g2813
ag3999
asbsg34
g3988
sg3994
g0
(g75
g2
Ntp4020
Rp4021
(dp4022
g14
I00
sg32
I01
sg15
I00
sg3999
g0
(g91
g2
Ntp4023
Rp4024
(dp4025
g14
I00
sg32
I00
sg95
S'deconvolution'
p4026
sg15
I00
sbsg2813
g0
(g91
g2
Ntp4027
Rp4028
(dp4029
g14
I00
sg32
I01
sg95
g4018
sg15
I00
sbsg11
(lp4030
g2813
ag3999
asbsg35
S'SiStripBackPlaneCorrectionDepESProducer'
p4031
sbsg2706
g2715
sg2759
g2761
sS'_Process__esprefers'
p4032
(dp4033
S'GlobalTag_prefer'
p4034
g0
(cFWCore.ParameterSet.Modules
ESPrefer
p4035
g2
Ntp4036
Rp4037
(dp4038
g11
(lp4039
sg14
I00
sg15
I00
sS'_targetLabel'
p4040
g2838
sg16
I73
sg17
g18
sg34
g4034
sg35
g2913
sbsS'es_prefer_hcalHardcode'
p4041
g0
(g4035
g2
Ntp4042
Rp4043
(dp4044
g11
(lp4045
sg14
I00
sg15
I00
sg4040
S'es_hardcode'
p4046
sg16
I73
sg17
g18
sg34
g4041
sg35
S'HcalHardcodeCalibrations'
p4047
sbssS'_Process__isStrict'
p4048
I00
sS'HepPDTESSource'
p4049
g0
(g2839
g2
Ntp4050
Rp4051
(dp4052
g11
(lp4053
S'pdtFileName'
p4054
asg14
I00
sg4054
g0
(g534
g2
Ntp4055
Rp4056
(dp4057
g14
I00
sg32
I01
sg95
S'SimGeneral/HepPDTESSource/data/pythiaparticle.tbl'
p4058
sg15
I00
sbsg15
I00
sg16
I4
sg17
S'/cvmfs/cms.cern.ch/slc6_amd64_gcc530/cms/cmssw/CMSSW_8_0_12/python/SimGeneral/HepPDTESSource/pythiapdt_cfi.py'
p4059
sg34
g4049
sg35
g4049
sbsS'_Process__outputmodules'
p4060
(dp4061
sS'_Process__analyzers'
p4062
(dp4063
g3602
g2987
sS'printGenParticleList'
p4064
g0
(g2985
g2
Ntp4065
Rp4066
(dp4067
g11
(lp4068
S'printVertex'
p4069
ag55
aS'maxEventsToPrint'
p4070
asg14
I00
sg15
I00
sg55
g0
(g58
g2
Ntp4071
Rp4072
(dp4073
g14
I00
sg32
I01
sg15
I00
sg62
g2695
sg64
g67
sg66
g67
sbsg17
g2699
sg34
g4064
sg16
I399
sg4069
g0
(g242
g2
Ntp4074
Rp4075
(dp4076
g14
I00
sg32
I00
sg95
I01
sg15
I00
sbsg4070
g0
(g1945
g2
Ntp4077
Rp4078
(dp4079
g14
I00
sg32
I00
sg95
I-1
sg15
I00
sbsg35
S'ParticleListDrawer'
p4080
sbssS'mvaEleID_PHYS14_PU20bx25_nonTrig_V1_wp80'
p4081
g0
(g75
g2
Ntp4082
Rp4083
(dp4084
g14
I00
sg32
I01
sg15
I01
sg226
g0
(g91
g2
Ntp4085
Rp4086
(dp4087
g14
I00
sg32
I01
sg95
S'mvaEleID-PHYS14-PU20bx25-nonTrig-V1-wp80'
p4088
sg15
I00
sbsg231
g0
(g73
g20
(lp4089
g0
(g75
g2
Ntp4090
Rp4091
(dp4092
g14
I00
sg32
I01
sg1983
g0
(g58
g2
Ntp4093
Rp4094
(dp4095
g14
I00
sg32
I01
sg15
I00
sg62
S'electronMVAValueMapProducer'
p4096
sg64
g67
sg66
S'ElectronMVAEstimatorRun2Phys14NonTrig25nsV1Values'
p4097
sbsg1989
g0
(g58
g2
Ntp4098
Rp4099
(dp4100
g14
I00
sg32
I01
sg15
I00
sg62
S'electronMVAValueMapProducer'
p4101
sg64
g67
sg66
S'ElectronMVAEstimatorRun2Phys14NonTrig25nsV1Categories'
p4102
sbsg236
g0
(g91
g2
Ntp4103
Rp4104
(dp4105
g14
I00
sg32
I01
sg95
g1998
sg15
I00
sbsg241
g0
(g242
g2
Ntp4106
Rp4107
(dp4108
g14
I00
sg32
I01
sg95
I01
sg15
I00
sbsg2002
g0
(g2003
g20
(lp4109
F-0.253
aF0.081
aF-0.081
aF0.965
aF0.917
aF0.683
atp4110
Rp4111
(dp4112
g14
I00
sg32
I01
sg15
I00
sbsg246
g0
(g242
g2
Ntp4113
Rp4114
(dp4115
g14
I00
sg32
I01
sg95
I00
sg15
I00
sbsg11
(lp4116
g1983
ag1989
ag236
ag241
ag2002
ag246
asg15
I00
sbatp4117
Rp4118
(dp4119
g14
I00
sg32
I01
sg15
I00
sg33
I1
sbsg608
g0
(g242
g2
Ntp4120
Rp4121
(dp4122
g14
I00
sg32
I00
sg95
I00
sg15
I00
sbsg11
(lp4123
g226
ag231
ag608
asg34
g4081
sbsg38
g41
sS'idealForDigiTrackerGeometry'
p4124
g0
(g7
g2
Ntp4125
Rp4126
(dp4127
g11
(lp4128
g2317
ag3896
ag2660
ag3897
asg14
I00
sg2317
g0
(g91
g2
Ntp4129
Rp4130
(dp4131
g14
I00
sg32
I01
sg95
S'idealForDigi'
p4132
sg15
I01
sbsg15
I01
sg3897
g0
(g91
g2
Ntp4133
Rp4134
(dp4135
g14
I00
sg32
I01
sg95
S'fakeForIdeal'
p4136
sg15
I01
sbsg17
S'/cvmfs/cms.cern.ch/slc6_amd64_gcc530/cms/cmssw/CMSSW_8_0_12/python/Geometry/TrackerGeometryBuilder/idealForDigiTrackerGeometryDB_cff.py'
p4137
sg16
I8
sg34
g4124
sg3896
g0
(g242
g2
Ntp4138
Rp4139
(dp4140
g14
I00
sg32
I01
sg95
I00
sg15
I00
sbsg2660
g0
(g242
g2
Ntp4141
Rp4142
(dp4143
g14
I00
sg32
I01
sg95
I00
sg15
I01
sbsg35
g3910
sbsS'_Process__looper'
p4144
NsS'_Process__paths'
p4145
g0
(g2968
g2969
(dp4146
g2976
g2979
stp4147
Rp4148
(dp4149
g2974
(lp4150
g2976
asbsg201
g174
sS'DTGeometryESModule'
p4151
g0
(g7
g2
Ntp4152
Rp4153
(dp4154
g11
(lp4155
g2317
ag3896
ag2660
ag3897
asg14
I00
sg2317
g0
(g91
g2
Ntp4156
Rp4157
(dp4158
g14
I00
sg32
I01
sg95
g67
sg15
I00
sbsg15
I00
sg3897
g0
(g91
g2
Ntp4159
Rp4160
(dp4161
g14
I00
sg32
I01
sg95
g67
sg15
I00
sbsg17
g18
sg16
I40
sg34
g4151
sg3896
g0
(g242
g2
Ntp4162
Rp4163
(dp4164
g14
I00
sg32
I01
sg95
I00
sg15
I00
sbsg2660
g0
(g242
g2
Ntp4165
Rp4166
(dp4167
g14
I00
sg32
I01
sg95
I01
sg15
I00
sbsg35
g4151
sbsS'VolumeBasedMagneticFieldESProducer'
p4168
g0
(g7
g2
Ntp4169
Rp4170
(dp4171
g11
(lp4172
S'valueOverride'
p4173
aS'debugBuilder'
p4174
ag3999
asg14
I00
sg4173
g0
(g1945
g2
Ntp4175
Rp4176
(dp4177
g14
I00
sg32
I01
sg95
I18268
sg15
I01
sbsg16
I40
sg17
g18
sg3999
g0
(g91
g2
Ntp4178
Rp4179
(dp4180
g14
I00
sg32
I00
sg95
g67
sg15
I00
sbsg4174
g0
(g242
g2
Ntp4181
Rp4182
(dp4183
g14
I00
sg32
I00
sg95
I00
sg15
I00
sbsg34
g4168
sg35
S'VolumeBasedMagneticFieldESProducerFromDB'
p4184
sg15
I01
sbsg2220
g2182
sS'CaloTopologyBuilder'
p4185
g0
(g7
g2
Ntp4186
Rp4187
(dp4188
g11
(lp4189
sg14
I00
sg15
I00
sg16
I40
sg17
g18
sg34
g4185
sg35
g4185
sbsS'mvaEleID_PHYS14_PU20bx25_nonTrig_V1_wp90'
p4190
g0
(g75
g2
Ntp4191
Rp4192
(dp4193
g14
I00
sg32
I01
sg15
I01
sg226
g0
(g91
g2
Ntp4194
Rp4195
(dp4196
g14
I00
sg32
I01
sg95
S'mvaEleID-PHYS14-PU20bx25-nonTrig-V1-wp90'
p4197
sg15
I00
sbsg231
g0
(g73
g20
(lp4198
g0
(g75
g2
Ntp4199
Rp4200
(dp4201
g14
I00
sg32
I01
sg1983
g0
(g58
g2
Ntp4202
Rp4203
(dp4204
g14
I00
sg32
I01
sg15
I00
sg62
S'electronMVAValueMapProducer'
p4205
sg64
g67
sg66
S'ElectronMVAEstimatorRun2Phys14NonTrig25nsV1Values'
p4206
sbsg1989
g0
(g58
g2
Ntp4207
Rp4208
(dp4209
g14
I00
sg32
I01
sg15
I00
sg62
S'electronMVAValueMapProducer'
p4210
sg64
g67
sg66
S'ElectronMVAEstimatorRun2Phys14NonTrig25nsV1Categories'
p4211
sbsg236
g0
(g91
g2
Ntp4212
Rp4213
(dp4214
g14
I00
sg32
I01
sg95
g1998
sg15
I00
sbsg241
g0
(g242
g2
Ntp4215
Rp4216
(dp4217
g14
I00
sg32
I01
sg95
I01
sg15
I00
sbsg2002
g0
(g2003
g20
(lp4218
F-0.483
aF-0.267
aF-0.323
aF0.933
aF0.825
aF0.337
atp4219
Rp4220
(dp4221
g14
I00
sg32
I01
sg15
I00
sbsg246
g0
(g242
g2
Ntp4222
Rp4223
(dp4224
g14
I00
sg32
I01
sg95
I00
sg15
I00
sbsg11
(lp4225
g1983
ag1989
ag236
ag241
ag2002
ag246
asg15
I00
sbatp4226
Rp4227
(dp4228
g14
I00
sg32
I01
sg15
I00
sg33
I1
sbsg608
g0
(g242
g2
Ntp4229
Rp4230
(dp4231
g14
I00
sg32
I00
sg95
I00
sg15
I00
sbsg11
(lp4232
g226
ag231
ag608
asg34
g4190
sbsS'SiStripRecHitMatcherESProducer'
p4233
g0
(g7
g2
Ntp4234
Rp4235
(dp4236
g11
(lp4237
S'PreFilter'
p4238
ag2962
aS'NSigmaInside'
p4239
asg14
I00
sg15
I00
sg17
g18
sg2962
g0
(g91
g2
Ntp4240
Rp4241
(dp4242
g14
I00
sg32
I01
sg95
S'StandardMatcher'
p4243
sg15
I00
sbsg4238
g0
(g242
g2
Ntp4244
Rp4245
(dp4246
g14
I00
sg32
I01
sg95
I00
sg15
I00
sbsg16
I40
sg4239
g0
(g252
g2
Ntp4247
Rp4248
(dp4249
g14
I00
sg32
I01
sg95
F3.0
sg15
I00
sbsg34
g4233
sg35
g4233
sbsS'_Process__psets'
p4250
(dp4251
g141
g105
sg2220
g2182
sg2118
g2080
sg2914
g2916
sg2016
g1973
sg172
g143
sg3933
g3935
sS'maxEvents'
p4252
g0
(g75
g2
Ntp4253
Rp4254
(dp4255
g14
I00
sg32
I00
sg15
I00
sg11
(lp4256
S'input'
p4257
asg34
g4252
sg4257
g0
(g1945
g2
Ntp4258
Rp4259
(dp4260
g14
I00
sg32
I00
sg95
I100
sg15
I00
sbsbsg103
g77
sg201
g174
sg2067
g2029
sg2169
g2131
sg4081
g4083
sg4190
g4192
ssS'_Process__essources'
p4261
(dp4262
g4049
g4051
sg4046
g0
(g2839
g2
Ntp4263
Rp4264
(dp4265
g11
(lp4266
S'HERecalibration'
p4267
ag2850
aS'GainWidthsForTrigPrims'
p4268
aS'HEreCalibCutoff'
p4269
aS'HFRecalibration'
p4270
aS'iLumi'
p4271
aS'testHFQIE10'
p4272
asg14
I00
sg15
I00
sg16
I18
sg4267
g0
(g242
g2
Ntp4273
Rp4274
(dp4275
g14
I00
sg32
I01
sg95
I00
sg15
I00
sbsg2850
g0
(g19
g20
(lp4276
S'GainWidths'
p4277
atp4278
Rp4279
(dp4280
g14
I00
sg32
I00
sg15
I00
sg33
I1
sbsg4268
g0
(g242
g2
Ntp4281
Rp4282
(dp4283
g14
I00
sg32
I01
sg95
I00
sg15
I00
sbsg4269
g0
(g252
g2
Ntp4284
Rp4285
(dp4286
g14
I00
sg32
I01
sg95
F20.0
sg15
I00
sbsg4270
g0
(g242
g2
Ntp4287
Rp4288
(dp4289
g14
I00
sg32
I01
sg95
I00
sg15
I00
sbsg17
S'/cvmfs/cms.cern.ch/slc6_amd64_gcc530/cms/cmssw/CMSSW_8_0_12/python/CalibCalorimetry/HcalPlugins/Hcal_Conditions_forGlobalTag_cff.py'
p4290
sg34
g4046
sg4271
g0
(g252
g2
Ntp4291
Rp4292
(dp4293
g14
I00
sg32
I01
sg95
F-1.0
sg15
I00
sbsg4272
g0
(g242
g2
Ntp4294
Rp4295
(dp4296
g14
I00
sg32
I01
sg95
I00
sg15
I00
sbsg35
g4047
sbsg3911
g3913
sg2838
g2841
ssg2300
g2287
sg2779
g2781
sg4252
g4254
sS'CSCGeometryESModule'
p4297
g0
(g7
g2
Ntp4298
Rp4299
(dp4300
g11
(lp4301
g2317
aS'useDDD'
p4302
aS'debugV'
p4303
aS'useGangedStripsInME1a'
p4304
ag3897
aS'useOnlyWiresInME1a'
p4305
aS'useRealWireGeometry'
p4306
aS'useCentreTIOffsets'
p4307
ag2660
asg14
I00
sg2317
g0
(g91
g2
Ntp4308
Rp4309
(dp4310
g14
I00
sg32
I01
sg95
g67
sg15
I00
sbsg15
I00
sg4303
g0
(g242
g2
Ntp4311
Rp4312
(dp4313
g14
I00
sg32
I00
sg95
I00
sg15
I00
sbsg17
g18
sg4304
g0
(g242
g2
Ntp4314
Rp4315
(dp4316
g14
I00
sg32
I01
sg95
I01
sg15
I00
sbsg3897
g0
(g91
g2
Ntp4317
Rp4318
(dp4319
g14
I00
sg32
I01
sg95
g67
sg15
I00
sbsg4305
g0
(g242
g2
Ntp4320
Rp4321
(dp4322
g14
I00
sg32
I01
sg95
I00
sg15
I00
sbsg4302
g0
(g242
g2
Ntp4323
Rp4324
(dp4325
g14
I00
sg32
I01
sg95
I00
sg15
I00
sbsg16
I40
sg4307
g0
(g242
g2
Ntp4326
Rp4327
(dp4328
g14
I00
sg32
I01
sg95
I00
sg15
I00
sbsg34
g4297
sg4306
g0
(g242
g2
Ntp4329
Rp4330
(dp4331
g14
I00
sg32
I01
sg95
I01
sg15
I00
sbsg2660
g0
(g242
g2
Ntp4332
Rp4333
(dp4334
g14
I00
sg32
I01
sg95
I01
sg15
I00
sbsg35
g4297
sbsS'EcalBarrelGeometryFromDBEP'
p4335
g0
(g7
g2
Ntp4336
Rp4337
(dp4338
g11
(lp4339
g2660
asg14
I00
sg15
I01
sg16
I40
sg17
g18
sg34
g4335
sg2660
g0
(g242
g2
Ntp4340
Rp4341
(dp4342
g14
I00
sg32
I01
sg95
I01
sg15
I01
sbsg35
g4335
sbsS'trackerNumberingGeometryDB'
p4343
g0
(g7
g2
Ntp4344
Rp4345
(dp4346
g11
(lp4347
g2317
ag3896
asg14
I00
sg2317
g0
(g91
g2
Ntp4348
Rp4349
(dp4350
g14
I00
sg32
I01
sg95
g67
sg15
I00
sbsg15
I00
sg16
I40
sg17
g18
sg34
g4343
sg3896
g0
(g242
g2
Ntp4351
Rp4352
(dp4353
g14
I00
sg32
I01
sg95
I00
sg15
I00
sbsg35
S'TrackerGeometricDetESModule'
p4354
sbsg2278
g2235
sS'_Process__name'
p4355
S'Demo'
p4356
sg4034
g4037
sg4046
g4264
sS'_cloneToObjectDict'
p4357
(dp4358
I140690712724304
g0
(g7
g2
Ntp4359
Rp4360
(dp4361
g11
(lp4362
g3993
aS'LorentzAngleDeconvMode'
p4363
aS'LorentzAnglePeakMode'
p4364
asg14
I00
sg15
I00
sg16
I40
sg17
g18
sg3993
g0
(g75
g2
Ntp4365
Rp4366
(dp4367
g14
I00
sg32
I01
sg15
I00
sg3999
g0
(g91
g2
Ntp4368
Rp4369
(dp4370
g14
I00
sg32
I00
sg95
g67
sg15
I00
sbsg2813
g0
(g91
g2
Ntp4371
Rp4372
(dp4373
g14
I00
sg32
I01
sg95
g4006
sg15
I00
sbsg11
(lp4374
g2813
ag3999
asbsg34
S'siStripLorentzAngleDepESProducer'
p4375
sg4364
g0
(g75
g2
Ntp4376
Rp4377
(dp4378
g14
I00
sg32
I01
sg15
I00
sg3999
g0
(g91
g2
Ntp4379
Rp4380
(dp4381
g14
I00
sg32
I00
sg95
g4014
sg15
I00
sbsg2813
g0
(g91
g2
Ntp4382
Rp4383
(dp4384
g14
I00
sg32
I01
sg95
S'SiStripLorentzAngleRcd'
p4385
sg15
I00
sbsg11
(lp4386
g2813
ag3999
asbsg35
S'SiStripLorentzAngleDepESProducer'
p4387
sg4363
g0
(g75
g2
Ntp4388
Rp4389
(dp4390
g14
I00
sg32
I01
sg15
I00
sg3999
g0
(g91
g2
Ntp4391
Rp4392
(dp4393
g14
I00
sg32
I00
sg95
g4026
sg15
I00
sbsg2813
g0
(g91
g2
Ntp4394
Rp4395
(dp4396
g14
I00
sg32
I01
sg95
g4385
sg15
I00
sbsg11
(lp4397
g2813
ag3999
asbsbsI140690713052048
g0
(g7
g2
Ntp4398
Rp4399
(dp4400
g11
(lp4401
g2317
asg14
I00
sg2317
g0
(g91
g2
Ntp4402
Rp4403
(dp4404
g14
I00
sg32
I01
sg95
g67
sg15
I00
sbsg15
I00
sg16
I40
sg17
g18
sg34
S'trackerTopology'
p4405
sg35
S'TrackerTopologyEP'
p4406
sbsI140690712895888
g77
sI140690713019344
g4299
sI140690712896528
g4083
sI140690713052240
g3608
sI140690712425616
g2235
sI140690712765648
g0
(g7
g2
Ntp4407
Rp4408
(dp4409
g11
(lp4410
g2317
aS'PrintDebugOutput'
p4411
aS'ThresholdForReducedGranularity'
p4412
aS'UseEmptyRunInfo'
p4413
aS'ReduceGranularity'
p4414
ag2808
asg14
I00
sg2317
g0
(g91
g2
Ntp4415
Rp4416
(dp4417
g14
I00
sg32
I01
sg95
g67
sg15
I00
sbsg15
I01
sg16
I40
sg17
g18
sg4412
g0
(g252
g2
Ntp4418
Rp4419
(dp4420
g14
I00
sg32
I01
sg95
F0.3
sg15
I00
sbsg34
S'siStripQualityESProducer'
p4421
sg4413
g0
(g242
g2
Ntp4422
Rp4423
(dp4424
g14
I00
sg32
I01
sg95
I00
sg15
I00
sbsg4414
g0
(g242
g2
Ntp4425
Rp4426
(dp4427
g14
I00
sg32
I01
sg95
I00
sg15
I00
sbsg2808
g0
(g73
g20
(lp4428
g0
(g75
g2
Ntp4429
Rp4430
(dp4431
g14
I00
sg32
I01
sg15
I00
sg2813
g0
(g91
g2
Ntp4432
Rp4433
(dp4434
g14
I00
sg32
I01
sg95
S'SiStripDetVOffRcd'
p4435
sg15
I00
sbsg2818
g0
(g91
g2
Ntp4436
Rp4437
(dp4438
g14
I00
sg32
I01
sg95
g67
sg15
I00
sbsg11
(lp4439
g2813
ag2818
asbag0
(g75
g2
Ntp4440
Rp4441
(dp4442
g14
I00
sg32
I01
sg15
I00
sg2813
g0
(g91
g2
Ntp4443
Rp4444
(dp4445
g14
I00
sg32
I01
sg95
S'SiStripDetCablingRcd'
p4446
sg15
I00
sbsg2818
g0
(g91
g2
Ntp4447
Rp4448
(dp4449
g14
I00
sg32
I01
sg95
g67
sg15
I00
sbsg11
(lp4450
g2813
ag2818
asbag0
(g75
g2
Ntp4451
Rp4452
(dp4453
g14
I00
sg32
I01
sg15
I00
sg2813
g0
(g91
g2
Ntp4454
Rp4455
(dp4456
g14
I00
sg32
I01
sg95
S'RunInfoRcd'
p4457
sg15
I00
sbsg2818
g0
(g91
g2
Ntp4458
Rp4459
(dp4460
g14
I00
sg32
I01
sg95
g67
sg15
I00
sbsg11
(lp4461
g2813
ag2818
asbag0
(g75
g2
Ntp4462
Rp4463
(dp4464
g14
I00
sg32
I01
sg15
I00
sg2813
g0
(g91
g2
Ntp4465
Rp4466
(dp4467
g14
I00
sg32
I01
sg95
S'SiStripBadChannelRcd'
p4468
sg15
I00
sbsg2818
g0
(g91
g2
Ntp4469
Rp4470
(dp4471
g14
I00
sg32
I01
sg95
g67
sg15
I00
sbsg11
(lp4472
g2813
ag2818
asbag0
(g75
g2
Ntp4473
Rp4474
(dp4475
g14
I00
sg32
I01
sg15
I00
sg2813
g0
(g91
g2
Ntp4476
Rp4477
(dp4478
g14
I00
sg32
I01
sg95
S'SiStripBadFiberRcd'
p4479
sg15
I00
sbsg2818
g0
(g91
g2
Ntp4480
Rp4481
(dp4482
g14
I00
sg32
I01
sg95
g67
sg15
I00
sbsg11
(lp4483
g2813
ag2818
asbag0
(g75
g2
Ntp4484
Rp4485
(dp4486
g14
I00
sg32
I01
sg15
I00
sg2813
g0
(g91
g2
Ntp4487
Rp4488
(dp4489
g14
I00
sg32
I01
sg95
S'SiStripBadModuleRcd'
p4490
sg15
I00
sbsg2818
g0
(g91
g2
Ntp4491
Rp4492
(dp4493
g14
I00
sg32
I01
sg95
g67
sg15
I00
sbsg11
(lp4494
g2813
ag2818
asbag0
(g75
g2
Ntp4495
Rp4496
(dp4497
g14
I00
sg32
I01
sg15
I00
sg2813
g0
(g91
g2
Ntp4498
Rp4499
(dp4500
g14
I00
sg32
I01
sg95
S'SiStripBadStripRcd'
p4501
sg15
I00
sbsg2818
g0
(g91
g2
Ntp4502
Rp4503
(dp4504
g14
I00
sg32
I01
sg95
g67
sg15
I00
sbsg11
(lp4505
g2813
ag2818
asbatp4506
Rp4507
(dp4508
g14
I00
sg32
I01
sg15
I00
sg33
I1
sbsg35
S'SiStripQualityESProducer'
p4509
sg4411
g0
(g242
g2
Ntp4510
Rp4511
(dp4512
g14
I00
sg32
I01
sg95
I00
sg15
I00
sbsbsI140690712398992
g2182
sI140690712424592
g52
sI140690713053072
g9
sI140690712397200
g2916
sI140690713052624
g4187
sI140690712725008
g3990
sI140690713093776
g3885
sI140690713147280
g2959
sI140690712325200
g2979
sI140690713146000
g0
(g7
g2
Ntp4513
Rp4514
(dp4515
g11
(lp4516
g2317
ag4302
ag4303
ag4304
ag3897
ag4305
ag4306
ag4307
ag2660
asg14
I00
sg2317
g0
(g91
g2
Ntp4517
Rp4518
(dp4519
g14
I00
sg32
I01
sg95
g4132
sg15
I01
sbsg15
I01
sg4303
g0
(g242
g2
Ntp4520
Rp4521
(dp4522
g14
I00
sg32
I00
sg95
I00
sg15
I00
sbsg17
S'/cvmfs/cms.cern.ch/slc6_amd64_gcc530/cms/cmssw/CMSSW_8_0_12/python/Geometry/CSCGeometryBuilder/idealForDigiCscGeometryDB_cff.py'
p4523
sg4304
g0
(g242
g2
Ntp4524
Rp4525
(dp4526
g14
I00
sg32
I01
sg95
I01
sg15
I00
sbsg3897
g0
(g91
g2
Ntp4527
Rp4528
(dp4529
g14
I00
sg32
I01
sg95
g4136
sg15
I01
sbsg4305
g0
(g242
g2
Ntp4530
Rp4531
(dp4532
g14
I00
sg32
I01
sg95
I00
sg15
I00
sbsg4302
g0
(g242
g2
Ntp4533
Rp4534
(dp4535
g14
I00
sg32
I01
sg95
I00
sg15
I00
sbsg16
I8
sg4307
g0
(g242
g2
Ntp4536
Rp4537
(dp4538
g14
I00
sg32
I01
sg95
I00
sg15
I00
sbsg34
S'idealForDigiCSCGeometry'
p4539
sg4306
g0
(g242
g2
Ntp4540
Rp4541
(dp4542
g14
I00
sg32
I01
sg95
I01
sg15
I00
sbsg2660
g0
(g242
g2
Ntp4543
Rp4544
(dp4545
g14
I00
sg32
I01
sg95
I00
sg15
I01
sbsg35
g4297
sbsI140690712676176
g0
(g7
g2
Ntp4546
Rp4547
(dp4548
g11
(lp4549
S'file'
p4550
aS'dump'
p4551
asg14
I00
sg15
I00
sg4551
g0
(g19
g20
(lp4552
g67
atp4553
Rp4554
(dp4555
g14
I00
sg32
I00
sg15
I00
sg33
I1
sbsg16
I40
sg17
g18
sg4550
g0
(g91
g2
Ntp4556
Rp4557
(dp4558
g14
I00
sg32
I00
sg95
g67
sg15
I00
sbsg34
S'hcal_db_producer'
p4559
sg35
S'HcalDbProducer'
p4560
sbsI140690712841552
g209
sI140690713146832
g0
(g7
g2
Ntp4561
Rp4562
(dp4563
g11
(lp4564
g2317
ag3896
ag2660
ag3897
asg14
I00
sg2317
g0
(g91
g2
Ntp4565
Rp4566
(dp4567
g14
I00
sg32
I01
sg95
g4132
sg15
I01
sbsg15
I01
sg3897
g0
(g91
g2
Ntp4568
Rp4569
(dp4570
g14
I00
sg32
I01
sg95
g4136
sg15
I01
sbsg17
S'/cvmfs/cms.cern.ch/slc6_amd64_gcc530/cms/cmssw/CMSSW_8_0_12/python/Geometry/DTGeometryBuilder/idealForDigiDtGeometryDB_cff.py'
p4571
sg16
I8
sg34
S'idealForDigiDTGeometry'
p4572
sg3896
g0
(g242
g2
Ntp4573
Rp4574
(dp4575
g14
I00
sg32
I01
sg95
I00
sg15
I00
sbsg2660
g0
(g242
g2
Ntp4576
Rp4577
(dp4578
g14
I00
sg32
I01
sg95
I00
sg15
I01
sbsg35
g4151
sbsI140690713094096
g3980
sI140690712397840
g3935
sI140690712274384
g2684
sI140690712726800
g4235
sI140690712897744
g105
sI140690713053456
g3613
sI140690712676688
g4264
sI140690713094544
g0
(g7
g2
Ntp4579
Rp4580
(dp4581
g11
(lp4582
sg14
I00
sg15
I00
sg16
I40
sg17
g18
sg34
S'EcalElectronicsMappingBuilder'
p4583
sg35
g4583
sbsI140690712765136
g4051
sI140690713053712
g4337
sI140690713093456
g0
(g7
g2
Ntp4584
Rp4585
(dp4586
g11
(lp4587
g2660
asg14
I00
sg15
I00
sg16
I40
sg17
g18
sg34
S'ZdcGeometryFromDBEP'
p4588
sg2660
g0
(g242
g2
Ntp4589
Rp4590
(dp4591
g14
I00
sg32
I01
sg95
I00
sg15
I00
sbsg35
g4588
sbsI140690713094800
g3913
sI140690712324816
g2987
sI140690712898384
g2080
sI140690713606816
g203
sI140690712725328
g0
(g7
g2
Ntp4592
Rp4593
(dp4594
g11
(lp4595
S'ComponentType'
p4596
ag2962
aS'parameters'
p4597
asg14
I00
sg15
I00
sg4597
g0
(g75
g2
Ntp4598
Rp4599
(dp4600
g14
I00
sg32
I01
sg15
I00
sg11
(lp4601
sbsg16
I40
sg2962
g0
(g91
g2
Ntp4602
Rp4603
(dp4604
g14
I00
sg32
I01
sg95
S'stripCPE'
p4605
sg15
I00
sbsg4596
g0
(g91
g2
Ntp4606
Rp4607
(dp4608
g14
I00
sg32
I01
sg95
S'SimpleStripCPE'
p4609
sg15
I00
sbsg17
g18
sg34
S'stripCPEESProducer'
p4610
sg35
S'StripCPEESProducer'
p4611
sbsI140690712274320
g2761
sI140690713148432
g0
(g7
g2
Ntp4612
Rp4613
(dp4614
g11
(lp4615
S'version'
p4616
ag4173
ag3999
asg14
I00
sg15
I01
sg16
I40
sg17
g18
sg3999
g0
(g91
g2
Ntp4617
Rp4618
(dp4619
g14
I00
sg32
I00
sg95
S'ParabolicMf'
p4620
sg15
I01
sbsg4616
g0
(g91
g2
Ntp4621
Rp4622
(dp4623
g14
I00
sg32
I01
sg95
S'Parabolic'
p4624
sg15
I00
sbsg4173
g0
(g1945
g2
Ntp4625
Rp4626
(dp4627
g14
I00
sg32
I01
sg95
I18268
sg15
I01
sbsg34
S'ParabolicParametrizedMagneticFieldProducer'
p4628
sg35
S'AutoParametrizedMagneticFieldProducer'
p4629
sbsI140690713054288
g0
(g7
g2
Ntp4630
Rp4631
(dp4632
g11
(lp4633
g2660
ag2661
asg14
I00
sg15
I01
sg16
I40
sg17
g18
sg2661
g0
(g75
g2
Ntp4634
Rp4635
(dp4636
g14
I00
sg32
I01
sg15
I00
sg2665
g0
(g1945
g2
Ntp4637
Rp4638
(dp4639
g14
I00
sg32
I01
sg95
I3
sg15
I00
sbsg2669
g0
(g1945
g2
Ntp4640
Rp4641
(dp4642
g14
I00
sg32
I01
sg95
I2
sg15
I00
sbsg11
(lp4643
g2665
ag2669
ag2674
asg2674
g0
(g91
g2
Ntp4644
Rp4645
(dp4646
g14
I00
sg32
I01
sg95
g2678
sg15
I00
sbsbsg34
S'HcalGeometryFromDBEP'
p4647
sg2660
g0
(g242
g2
Ntp4648
Rp4649
(dp4650
g14
I00
sg32
I01
sg95
I01
sg15
I01
sbsg35
g4647
sbsI140690712399632
g2131
sI140690713095312
g2314
sI140690712838544
g2781
sI140690712897168
g4192
sI140690713147920
g4170
sI140690713095824
g4126
sI140690713092944
g0
(g7
g2
Ntp4651
Rp4652
(dp4653
g11
(lp4654
sg14
I00
sg15
I00
sg16
I40
sg17
g18
sg34
S'CaloTowerTopologyEP'
p4655
sg35
g4655
sbsI140690712726928
g0
(g7
g2
Ntp4656
Rp4657
(dp4658
g11
(lp4659
sg14
I00
sg15
I00
sg16
I40
sg17
g18
sg34
S'sistripconn'
p4660
sg35
S'SiStripConnectivity'
p4661
sbsI140690712674960
g2841
sI140690713095632
g0
(g7
g2
Ntp4662
Rp4663
(dp4664
g11
(lp4665
g2317
asg14
I00
sg2317
g0
(g91
g2
Ntp4666
Rp4667
(dp4668
g14
I00
sg32
I01
sg95
g67
sg15
I00
sbsg15
I00
sg16
I40
sg17
g18
sg34
S'hcalDDDRecConstants'
p4669
sg35
S'HcalDDDRecConstantsESModule'
p4670
sbsI140690712725456
g0
(g7
g2
Ntp4671
Rp4672
(dp4673
g11
(lp4674
g4596
ag2962
ag4597
asg14
I00
sg15
I01
sg4597
g0
(g75
g2
Ntp4675
Rp4676
(dp4677
g14
I00
sg32
I01
sS'maxChgOneMIP'
p4678
g0
(g252
g2
Ntp4679
Rp4680
(dp4681
g14
I00
sg32
I01
sg95
F6000.0
sg15
I00
sbsS'mLC_P2'
p4682
g0
(g252
g2
Ntp4683
Rp4684
(dp4685
g14
I00
sg32
I01
sg95
F0.3
sg15
I00
sbsS'mLC_P1'
p4686
g0
(g252
g2
Ntp4687
Rp4688
(dp4689
g14
I00
sg32
I01
sg95
F0.618
sg15
I00
sbsS'mLC_P0'
p4690
g0
(g252
g2
Ntp4691
Rp4692
(dp4693
g14
I00
sg32
I01
sg95
F-0.326
sg15
I00
sbsS'useLegacyError'
p4694
g0
(g242
g2
Ntp4695
Rp4696
(dp4697
g14
I00
sg32
I01
sg95
I00
sg15
I00
sbsS'mTIB_P1'
p4698
g0
(g252
g2
Ntp4699
Rp4700
(dp4701
g14
I00
sg32
I01
sg95
F0.202
sg15
I00
sbsS'mTEC_P1'
p4702
g0
(g252
g2
Ntp4703
Rp4704
(dp4705
g14
I00
sg32
I01
sg95
F0.471
sg15
I00
sbsS'mTEC_P0'
p4706
g0
(g252
g2
Ntp4707
Rp4708
(dp4709
g14
I00
sg32
I01
sg95
F-1.885
sg15
I00
sbsS'mTOB_P0'
p4710
g0
(g252
g2
Ntp4711
Rp4712
(dp4713
g14
I00
sg32
I01
sg95
F-1.026
sg15
I00
sbsS'mTOB_P1'
p4714
g0
(g252
g2
Ntp4715
Rp4716
(dp4717
g14
I00
sg32
I01
sg95
F0.253
sg15
I00
sbsS'mTIB_P0'
p4718
g0
(g252
g2
Ntp4719
Rp4720
(dp4721
g14
I00
sg32
I01
sg95
F-0.742
sg15
I00
sbsg11
(lp4722
g4678
ag4682
ag4686
ag4690
ag4694
ag4702
ag4706
ag4710
ag4714
ag4718
ag4698
aS'mTID_P0'
p4723
aS'mTID_P1'
p4724
asg4723
g0
(g252
g2
Ntp4725
Rp4726
(dp4727
g14
I00
sg32
I01
sg95
F-1.427
sg15
I00
sbsg4724
g0
(g252
g2
Ntp4728
Rp4729
(dp4730
g14
I00
sg32
I01
sg95
F0.433
sg15
I00
sbsg15
I00
sbsg16
I4
sg2962
g0
(g91
g2
Ntp4731
Rp4732
(dp4733
g14
I00
sg32
I01
sg95
S'StripCPEfromTrackAngle'
p4734
sg15
I00
sbsg4596
g0
(g91
g2
Ntp4735
Rp4736
(dp4737
g14
I00
sg32
I01
sg95
g4734
sg15
I00
sbsg17
S'/cvmfs/cms.cern.ch/slc6_amd64_gcc530/cms/cmssw/CMSSW_8_0_12/python/RecoLocalTracker/SiStripRecHitConverter/StripCPEfromTrackAngle_cfi.py'
p4738
sg34
S'StripCPEfromTrackAngleESProducer'
p4739
sg35
g4611
sbsI140690712396560
g143
sI140690713054800
g0
(g7
g2
Ntp4740
Rp4741
(dp4742
g11
(lp4743
sg14
I00
sg15
I00
sg16
I40
sg17
g18
sg34
S'HcalAlignmentEP'
p4744
sg35
g4744
sbsI140690713022096
g4153
sI140690712764560
g2805
sI140690713053584
g0
(g7
g2
Ntp4745
Rp4746
(dp4747
g11
(lp4748
g2660
asg14
I00
sg15
I01
sg16
I40
sg17
g18
sg34
S'EcalPreshowerGeometryFromDBEP'
p4749
sg2660
g0
(g242
g2
Ntp4750
Rp4751
(dp4752
g14
I00
sg32
I01
sg95
I01
sg15
I01
sbsg35
g4749
sbsI140690712727312
g4037
sI140690712219024
g2715
sI140690713021456
g0
(g7
g2
Ntp4753
Rp4754
(dp4755
g11
(lp4756
g4302
aS'compatibiltyWith11'
p4757
asg14
I00
sg15
I00
sg16
I40
sg17
g18
sg4302
g0
(g242
g2
Ntp4758
Rp4759
(dp4760
g14
I00
sg32
I00
sg95
I00
sg15
I00
sbsg4757
g0
(g242
g2
Ntp4761
Rp4762
(dp4763
g14
I00
sg32
I00
sg95
I01
sg15
I00
sbsg34
S'RPCGeometryESModule'
p4764
sg35
g4764
sbsI140690712678288
g0
(g7
g2
Ntp4765
Rp4766
(dp4767
g11
(lp4768
S'printDebug'
p4769
ag2317
aS'APVGain'
p4770
aS'AutomaticNormalization'
p4771
asg14
I00
sg2317
g0
(g91
g2
Ntp4772
Rp4773
(dp4774
g14
I00
sg32
I01
sg95
g67
sg15
I00
sbsg15
I00
sg4771
g0
(g242
g2
Ntp4775
Rp4776
(dp4777
g14
I00
sg32
I01
sg95
I00
sg15
I00
sbsg16
I40
sg4769
g0
(g242
g2
Ntp4778
Rp4779
(dp4780
g14
I00
sg32
I00
sg95
I00
sg15
I00
sbsg17
g18
sg4770
g0
(g73
g20
(lp4781
g0
(g75
g2
Ntp4782
Rp4783
(dp4784
g14
I00
sg32
I01
sg15
I00
sS'Label'
p4785
g0
(g91
g2
Ntp4786
Rp4787
(dp4788
g14
I00
sg32
I00
sg95
g67
sg15
I00
sbsS'Record'
p4789
g0
(g91
g2
Ntp4790
Rp4791
(dp4792
g14
I00
sg32
I01
sg95
S'SiStripApvGainRcd'
p4793
sg15
I00
sbsS'NormalizationFactor'
p4794
g0
(g252
g2
Ntp4795
Rp4796
(dp4797
g14
I00
sg32
I00
sg95
F1.0
sg15
I00
sbsg11
(lp4798
g4789
ag4794
ag4785
asbag0
(g75
g2
Ntp4799
Rp4800
(dp4801
g14
I00
sg32
I01
sg15
I00
sg4785
g0
(g91
g2
Ntp4802
Rp4803
(dp4804
g14
I00
sg32
I00
sg95
g67
sg15
I00
sbsg4789
g0
(g91
g2
Ntp4805
Rp4806
(dp4807
g14
I00
sg32
I01
sg95
S'SiStripApvGain2Rcd'
p4808
sg15
I00
sbsg4794
g0
(g252
g2
Ntp4809
Rp4810
(dp4811
g14
I00
sg32
I00
sg95
F1.0
sg15
I00
sbsg11
(lp4812
g4789
ag4794
ag4785
asbatp4813
Rp4814
(dp4815
g14
I00
sg32
I01
sg15
I00
sg33
I1
sbsg34
S'siStripGainESProducer'
p4816
sg35
S'SiStripGainESProducer'
p4817
sbsI140690712727504
g0
(g7
g2
Ntp4818
Rp4819
(dp4820
g11
(lp4821
sg14
I00
sg15
I00
sg16
I40
sg17
g18
sg34
S'CastorDbProducer'
p4822
sg35
g4822
sbsI140690712840336
g4254
sI140690713051216
g4345
sI140690712151376
g2787
sI140690713092240
g2657
sI140690712676752
g4043
sI140690712325072
g4066
sI140690712899024
g2029
sI140690712398352
g174
sI140690713145744
g0
(g7
g2
Ntp4823
Rp4824
(dp4825
g11
(lp4826
g2317
asg14
I00
sg2317
g0
(g91
g2
Ntp4827
Rp4828
(dp4829
g14
I00
sg32
I01
sg95
g4136
sg15
I01
sbsg15
I01
sg16
I5
sg17
S'/cvmfs/cms.cern.ch/slc6_amd64_gcc530/cms/cmssw/CMSSW_8_0_12/python/Alignment/CommonAlignmentProducer/fakeForIdealAlignmentProducer_cfi.py'
p4830
sg34
S'fakeForIdealAlignment'
p4831
sg35
S'FakeAlignmentProducer'
p4832
sbsI140690712395920
g1973
sI140690712675984
g0
(g7
g2
Ntp4833
Rp4834
(dp4835
g11
(lp4836
sg14
I00
sg15
I00
sg16
I40
sg17
g18
sg34
S'EcalLaserCorrectionService'
p4837
sg35
g4837
sbsI140690713051664
g3893
sI140690713092752
g0
(g7
g2
Ntp4838
Rp4839
(dp4840
g11
(lp4841
S'Exclude'
p4842
ag2317
asg14
I00
sg2317
g0
(g91
g2
Ntp4843
Rp4844
(dp4845
g14
I00
sg32
I01
sg95
g67
sg15
I00
sbsg15
I00
sg16
I40
sg17
g18
sg34
S'hcalTopologyIdeal'
p4846
sg4842
g0
(g91
g2
Ntp4847
Rp4848
(dp4849
g14
I00
sg32
I00
sg95
g67
sg15
I00
sbsg35
S'HcalTopologyIdealEP'
p4850
sbsI140690712425680
g41
sI140690713051856
g0
(g7
g2
Ntp4851
Rp4852
(dp4853
g11
(lp4854
sg14
I00
sg15
I00
sg16
I40
sg17
g18
sg34
S'GlobalTrackingGeometryESProducer'
p4855
sg35
g4855
sbsI140690713051920
g0
(g7
g2
Ntp4856
Rp4857
(dp4858
g11
(lp4859
sg14
I00
sg15
I00
sg16
I40
sg17
g18
sg34
S'TrackerRecoGeometryESProducer'
p4860
sg35
g4860
sbssg4816
g4766
sg4764
g4754
sg4660
g4657
sg4588
g4585
sg4860
g4857
sg2169
g2131
sg4375
g4360
sg4655
g4652
sg4628
g4613
sg4610
g4593
sg4405
g4399
sg4064
g4066
sg4647
g4631
sg141
g105
sg2118
g2080
sg4041
g4043
sg4583
g4580
sg4739
g4672
sS'_Process__aliases'
p4861
(dp4862
sg4855
g4852
sg4837
g4834
sg205
g203
sg172
g143
sg4744
g4741
sg4749
g4746
sg4669
g4663
sg4822
g4819
sg103
g77
sg4539
g4514
sS'_Process__subProcesses'
p4863
(lp4864
sg4559
g4547
sg2016
g1973
sg4846
g4839
sS'_Process__schedule'
p4865
Nsg4421
g4408
sg4572
g4562
sS'_Process__modifiers'
p4866
(tsS'_Process__filters'
p4867
(dp4868
sS'_Process__esproducers'
p4869
(dp4870
g6
g9
sg4837
g4834
sg4860
g4857
sg4168
g4170
sg4739
g4672
sg3883
g3885
sg4185
g4187
sg4855
g4852
sg3891
g3893
sg4375
g4360
sg4846
g4839
sg4744
g4741
sg4749
g4746
sg4822
g4819
sg4669
g4663
sg4297
g4299
sg4335
g4337
sg4343
g4345
sg4583
g4580
sg3978
g3980
sg4539
g4514
sg2655
g2657
sg3988
g3990
sg4559
g4547
sg4816
g4766
sg4233
g4235
sg4764
g4754
sg4572
g4562
sg4588
g4585
sg4151
g4153
sg4421
g4408
sg4660
g4657
sg2803
g2805
sg4124
g4126
sg4655
g4652
sg4628
g4613
sg2957
g2959
sg4610
g4593
sg2312
g2314
sg3606
g3608
sg4405
g4399
sg3611
g3613
sg4831
g4824
sg4647
g4631
ssS'_Process__partialschedules'
p4871
(dp4872
sg4831
g4824
sg2733
g2787
sb.